
Userland/0000-userlandModule.elf:	file format elf64-x86-64

Disassembly of section .text:

0000000002000000 <_start>:
 2000000: ba 20 a3 00 02               	mov	edx, 0x200a320
 2000005: 48 89 d0                     	mov	rax, rdx
 2000008: 48 2d 01 60 00 02            	sub	rax, 0x2006001
 200000e: 48 81 ea 00 60 00 02         	sub	rdx, 0x2006000
 2000015: 0f 84 a2 01 00 00            	je	0x20001bd <_start+0x1bd>
 200001b: 48 8d ba f0 5f 00 02         	lea	rdi, [rdx + 0x2005ff0]
 2000022: 41 b8 17 00 00 00            	mov	r8d, 0x17
 2000028: 4c 8d 4a f0                  	lea	r9, [rdx - 0x10]
 200002c: 48 89 f9                     	mov	rcx, rdi
 200002f: 83 e1 0f                     	and	ecx, 0xf
 2000032: 48 8d 71 0f                  	lea	rsi, [rcx + 0xf]
 2000036: 4c 39 c6                     	cmp	rsi, r8
 2000039: 49 0f 42 f0                  	cmovb	rsi, r8
 200003d: 48 39 f0                     	cmp	rax, rsi
 2000040: 0f 82 6a 01 00 00            	jb	0x20001b0 <_start+0x1b0>
 2000046: 48 85 c9                     	test	rcx, rcx
 2000049: 0f 84 19 01 00 00            	je	0x2000168 <_start+0x168>
 200004f: c6 82 ff 5f 00 02 00         	mov	byte ptr [rdx + 0x2005fff], 0x0
 2000056: 48 8d 42 fe                  	lea	rax, [rdx - 0x2]
 200005a: 40 f6 c7 0e                  	test	dil, 0xe
 200005e: 0f 84 04 01 00 00            	je	0x2000168 <_start+0x168>
 2000064: c6 82 fe 5f 00 02 00         	mov	byte ptr [rdx + 0x2005ffe], 0x0
 200006b: 48 8d 42 fd                  	lea	rax, [rdx - 0x3]
 200006f: 48 83 f9 02                  	cmp	rcx, 0x2
 2000073: 0f 86 ef 00 00 00            	jbe	0x2000168 <_start+0x168>
 2000079: c6 82 fd 5f 00 02 00         	mov	byte ptr [rdx + 0x2005ffd], 0x0
 2000080: 48 8d 42 fc                  	lea	rax, [rdx - 0x4]
 2000084: 40 f6 c7 0c                  	test	dil, 0xc
 2000088: 0f 84 da 00 00 00            	je	0x2000168 <_start+0x168>
 200008e: c6 82 fc 5f 00 02 00         	mov	byte ptr [rdx + 0x2005ffc], 0x0
 2000095: 48 8d 42 fb                  	lea	rax, [rdx - 0x5]
 2000099: 48 83 f9 04                  	cmp	rcx, 0x4
 200009d: 0f 86 c5 00 00 00            	jbe	0x2000168 <_start+0x168>
 20000a3: c6 82 fb 5f 00 02 00         	mov	byte ptr [rdx + 0x2005ffb], 0x0
 20000aa: 48 8d 42 fa                  	lea	rax, [rdx - 0x6]
 20000ae: 48 83 f9 05                  	cmp	rcx, 0x5
 20000b2: 0f 84 b0 00 00 00            	je	0x2000168 <_start+0x168>
 20000b8: c6 82 fa 5f 00 02 00         	mov	byte ptr [rdx + 0x2005ffa], 0x0
 20000bf: 48 8d 42 f9                  	lea	rax, [rdx - 0x7]
 20000c3: 48 83 f9 06                  	cmp	rcx, 0x6
 20000c7: 0f 84 9b 00 00 00            	je	0x2000168 <_start+0x168>
 20000cd: 83 e7 08                     	and	edi, 0x8
 20000d0: c6 82 f9 5f 00 02 00         	mov	byte ptr [rdx + 0x2005ff9], 0x0
 20000d7: 48 8d 42 f8                  	lea	rax, [rdx - 0x8]
 20000db: 0f 84 87 00 00 00            	je	0x2000168 <_start+0x168>
 20000e1: c6 82 f8 5f 00 02 00         	mov	byte ptr [rdx + 0x2005ff8], 0x0
 20000e8: 48 8d 42 f7                  	lea	rax, [rdx - 0x9]
 20000ec: 48 83 f9 08                  	cmp	rcx, 0x8
 20000f0: 76 76                        	jbe	0x2000168 <_start+0x168>
 20000f2: c6 82 f7 5f 00 02 00         	mov	byte ptr [rdx + 0x2005ff7], 0x0
 20000f9: 48 8d 42 f6                  	lea	rax, [rdx - 0xa]
 20000fd: 48 83 f9 09                  	cmp	rcx, 0x9
 2000101: 74 65                        	je	0x2000168 <_start+0x168>
 2000103: c6 82 f6 5f 00 02 00         	mov	byte ptr [rdx + 0x2005ff6], 0x0
 200010a: 48 8d 42 f5                  	lea	rax, [rdx - 0xb]
 200010e: 48 83 f9 0a                  	cmp	rcx, 0xa
 2000112: 74 54                        	je	0x2000168 <_start+0x168>
 2000114: c6 82 f5 5f 00 02 00         	mov	byte ptr [rdx + 0x2005ff5], 0x0
 200011b: 48 8d 42 f4                  	lea	rax, [rdx - 0xc]
 200011f: 48 83 f9 0b                  	cmp	rcx, 0xb
 2000123: 74 43                        	je	0x2000168 <_start+0x168>
 2000125: c6 82 f4 5f 00 02 00         	mov	byte ptr [rdx + 0x2005ff4], 0x0
 200012c: 48 8d 42 f3                  	lea	rax, [rdx - 0xd]
 2000130: 48 83 f9 0c                  	cmp	rcx, 0xc
 2000134: 74 32                        	je	0x2000168 <_start+0x168>
 2000136: c6 82 f3 5f 00 02 00         	mov	byte ptr [rdx + 0x2005ff3], 0x0
 200013d: 48 8d 42 f2                  	lea	rax, [rdx - 0xe]
 2000141: 48 83 f9 0d                  	cmp	rcx, 0xd
 2000145: 74 21                        	je	0x2000168 <_start+0x168>
 2000147: c6 82 f2 5f 00 02 00         	mov	byte ptr [rdx + 0x2005ff2], 0x0
 200014e: 48 8d 42 f1                  	lea	rax, [rdx - 0xf]
 2000152: 48 83 f9 0f                  	cmp	rcx, 0xf
 2000156: 75 10                        	jne	0x2000168 <_start+0x168>
 2000158: c6 82 f1 5f 00 02 00         	mov	byte ptr [rdx + 0x2005ff1], 0x0
 200015f: 4c 89 c8                     	mov	rax, r9
 2000162: 66 0f 1f 44 00 00            	nop	word ptr [rax + rax]
 2000168: 48 29 ca                     	sub	rdx, rcx
 200016b: 48 8d 8a f0 5f 00 02         	lea	rcx, [rdx + 0x2005ff0]
 2000172: 48 89 d7                     	mov	rdi, rdx
 2000175: 48 83 e7 f0                  	and	rdi, -0x10
 2000179: 48 89 ce                     	mov	rsi, rcx
 200017c: 48 29 fe                     	sub	rsi, rdi
 200017f: 90                           	nop
 2000180: 48 c7 01 00 00 00 00         	mov	qword ptr [rcx], 0x0
 2000187: 48 83 e9 10                  	sub	rcx, 0x10
 200018b: 48 c7 41 18 00 00 00 00      	mov	qword ptr [rcx + 0x18], 0x0
 2000193: 48 39 f1                     	cmp	rcx, rsi
 2000196: 75 e8                        	jne	0x2000180 <_start+0x180>
 2000198: 48 89 d1                     	mov	rcx, rdx
 200019b: 48 83 e1 f0                  	and	rcx, -0x10
 200019f: 48 29 c8                     	sub	rax, rcx
 20001a2: 83 e2 0f                     	and	edx, 0xf
 20001a5: 74 16                        	je	0x20001bd <_start+0x1bd>
 20001a7: 66 0f 1f 84 00 00 00 00 00   	nop	word ptr [rax + rax]
 20001b0: c6 80 00 60 00 02 00         	mov	byte ptr [rax + 0x2006000], 0x0
 20001b7: 48 83 e8 01                  	sub	rax, 0x1
 20001bb: 73 f3                        	jae	0x20001b0 <_start+0x1b0>
 20001bd: 31 c0                        	xor	eax, eax
 20001bf: e9 6c 3c 00 00               	jmp	0x2003e30 <main>
 20001c4: 66 66 2e 0f 1f 84 00 00 00 00 00     	nop	word ptr cs:[rax + rax]
 20001cf: 90                           	nop

00000000020001d0 <memset>:
 20001d0: 48 85 d2                     	test	rdx, rdx
 20001d3: 0f 84 67 02 00 00            	je	0x2000440 <memset+0x270>
 20001d9: 4c 8d 5a f0                  	lea	r11, [rdx - 0x10]
 20001dd: 41 57                        	push	r15
 20001df: 48 8d 42 ff                  	lea	rax, [rdx - 0x1]
 20001e3: 41 ba 17 00 00 00            	mov	r10d, 0x17
 20001e9: 4e 8d 0c 1f                  	lea	r9, [rdi + r11]
 20001ed: 41 56                        	push	r14
 20001ef: 41 55                        	push	r13
 20001f1: 41 54                        	push	r12
 20001f3: 55                           	push	rbp
 20001f4: 53                           	push	rbx
 20001f5: 89 f3                        	mov	ebx, esi
 20001f7: 48 89 d6                     	mov	rsi, rdx
 20001fa: 4c 89 ca                     	mov	rdx, r9
 20001fd: 83 e2 0f                     	and	edx, 0xf
 2000200: 41 89 d8                     	mov	r8d, ebx
 2000203: 48 8d 4a 0f                  	lea	rcx, [rdx + 0xf]
 2000207: 48 83 ec 28                  	sub	rsp, 0x28
 200020b: 4c 39 d1                     	cmp	rcx, r10
 200020e: 49 0f 42 ca                  	cmovb	rcx, r10
 2000212: 48 39 c8                     	cmp	rax, rcx
 2000215: 0f 82 05 02 00 00            	jb	0x2000420 <memset+0x250>
 200021b: 48 85 d2                     	test	rdx, rdx
 200021e: 0f 84 e4 00 00 00            	je	0x2000308 <memset+0x138>
 2000224: 88 5c 37 ff                  	mov	byte ptr [rdi + rsi - 0x1], bl
 2000228: 48 8d 46 fe                  	lea	rax, [rsi - 0x2]
 200022c: 41 f6 c1 0e                  	test	r9b, 0xe
 2000230: 0f 84 d2 00 00 00            	je	0x2000308 <memset+0x138>
 2000236: 88 5c 37 fe                  	mov	byte ptr [rdi + rsi - 0x2], bl
 200023a: 48 8d 46 fd                  	lea	rax, [rsi - 0x3]
 200023e: 48 83 fa 02                  	cmp	rdx, 0x2
 2000242: 0f 86 c0 00 00 00            	jbe	0x2000308 <memset+0x138>
 2000248: 88 5c 37 fd                  	mov	byte ptr [rdi + rsi - 0x3], bl
 200024c: 48 8d 46 fc                  	lea	rax, [rsi - 0x4]
 2000250: 41 f6 c1 0c                  	test	r9b, 0xc
 2000254: 0f 84 ae 00 00 00            	je	0x2000308 <memset+0x138>
 200025a: 88 5c 37 fc                  	mov	byte ptr [rdi + rsi - 0x4], bl
 200025e: 48 8d 46 fb                  	lea	rax, [rsi - 0x5]
 2000262: 48 83 fa 04                  	cmp	rdx, 0x4
 2000266: 0f 86 9c 00 00 00            	jbe	0x2000308 <memset+0x138>
 200026c: 88 5c 37 fb                  	mov	byte ptr [rdi + rsi - 0x5], bl
 2000270: 48 8d 46 fa                  	lea	rax, [rsi - 0x6]
 2000274: 48 83 fa 05                  	cmp	rdx, 0x5
 2000278: 0f 84 8a 00 00 00            	je	0x2000308 <memset+0x138>
 200027e: 88 5c 37 fa                  	mov	byte ptr [rdi + rsi - 0x6], bl
 2000282: 48 8d 46 f9                  	lea	rax, [rsi - 0x7]
 2000286: 48 83 fa 06                  	cmp	rdx, 0x6
 200028a: 74 7c                        	je	0x2000308 <memset+0x138>
 200028c: 41 83 e1 08                  	and	r9d, 0x8
 2000290: 88 5c 37 f9                  	mov	byte ptr [rdi + rsi - 0x7], bl
 2000294: 48 8d 46 f8                  	lea	rax, [rsi - 0x8]
 2000298: 74 6e                        	je	0x2000308 <memset+0x138>
 200029a: 88 5c 37 f8                  	mov	byte ptr [rdi + rsi - 0x8], bl
 200029e: 48 8d 46 f7                  	lea	rax, [rsi - 0x9]
 20002a2: 48 83 fa 08                  	cmp	rdx, 0x8
 20002a6: 76 60                        	jbe	0x2000308 <memset+0x138>
 20002a8: 88 5c 37 f7                  	mov	byte ptr [rdi + rsi - 0x9], bl
 20002ac: 48 8d 46 f6                  	lea	rax, [rsi - 0xa]
 20002b0: 48 83 fa 09                  	cmp	rdx, 0x9
 20002b4: 74 52                        	je	0x2000308 <memset+0x138>
 20002b6: 88 5c 37 f6                  	mov	byte ptr [rdi + rsi - 0xa], bl
 20002ba: 48 8d 46 f5                  	lea	rax, [rsi - 0xb]
 20002be: 48 83 fa 0a                  	cmp	rdx, 0xa
 20002c2: 74 44                        	je	0x2000308 <memset+0x138>
 20002c4: 88 5c 37 f5                  	mov	byte ptr [rdi + rsi - 0xb], bl
 20002c8: 48 8d 46 f4                  	lea	rax, [rsi - 0xc]
 20002cc: 48 83 fa 0b                  	cmp	rdx, 0xb
 20002d0: 74 36                        	je	0x2000308 <memset+0x138>
 20002d2: 88 5c 37 f4                  	mov	byte ptr [rdi + rsi - 0xc], bl
 20002d6: 48 8d 46 f3                  	lea	rax, [rsi - 0xd]
 20002da: 48 83 fa 0c                  	cmp	rdx, 0xc
 20002de: 74 28                        	je	0x2000308 <memset+0x138>
 20002e0: 88 5c 37 f3                  	mov	byte ptr [rdi + rsi - 0xd], bl
 20002e4: 48 8d 46 f2                  	lea	rax, [rsi - 0xe]
 20002e8: 48 83 fa 0d                  	cmp	rdx, 0xd
 20002ec: 74 1a                        	je	0x2000308 <memset+0x138>
 20002ee: 88 5c 37 f2                  	mov	byte ptr [rdi + rsi - 0xe], bl
 20002f2: 48 8d 46 f1                  	lea	rax, [rsi - 0xf]
 20002f6: 48 83 fa 0f                  	cmp	rdx, 0xf
 20002fa: 75 0c                        	jne	0x2000308 <memset+0x138>
 20002fc: 88 5c 37 f1                  	mov	byte ptr [rdi + rsi - 0xf], bl
 2000300: 4c 89 d8                     	mov	rax, r11
 2000303: 0f 1f 44 00 00               	nop	dword ptr [rax + rax]
 2000308: 31 c9                        	xor	ecx, ecx
 200030a: 44 0f b6 cb                  	movzx	r9d, bl
 200030e: 48 29 d6                     	sub	rsi, rdx
 2000311: 31 d2                        	xor	edx, edx
 2000313: 44 88 c1                     	mov	cl, r8b
 2000316: 4d 89 cf                     	mov	r15, r9
 2000319: 44 88 c2                     	mov	dl, r8b
 200031c: 4d 89 cd                     	mov	r13, r9
 200031f: 88 dd                        	mov	ch, bl
 2000321: 49 c1 e7 10                  	shl	r15, 0x10
 2000325: 88 de                        	mov	dh, bl
 2000327: 4d 89 cb                     	mov	r11, r9
 200032a: 48 81 e1 ff ff 00 ff         	and	rcx, -0xff0001
 2000331: 49 c1 e5 18                  	shl	r13, 0x18
 2000335: 4d 89 ca                     	mov	r10, r9
 2000338: 49 be ff ff ff 00 ff ff ff ff	movabs	r14, -0xff000001
 2000342: 4c 09 f9                     	or	rcx, r15
 2000345: 48 81 e2 ff ff 00 ff         	and	rdx, -0xff0001
 200034c: 49 c1 e3 20                  	shl	r11, 0x20
 2000350: 49 bc ff ff ff ff 00 ff ff ff	movabs	r12, -0xff00000001
 200035a: 4c 21 f1                     	and	rcx, r14
 200035d: 4c 09 fa                     	or	rdx, r15
 2000360: 4c 89 5c 24 08               	mov	qword ptr [rsp + 0x8], r11
 2000365: 48 8b 5c 24 08               	mov	rbx, qword ptr [rsp + 0x8]
 200036a: 4c 09 e9                     	or	rcx, r13
 200036d: 4c 21 f2                     	and	rdx, r14
 2000370: 49 c1 e2 28                  	shl	r10, 0x28
 2000374: 48 bd ff ff ff ff ff 00 ff ff	movabs	rbp, -0xff0000000001
 200037e: 4c 21 e1                     	and	rcx, r12
 2000381: 4c 09 ea                     	or	rdx, r13
 2000384: 4c 89 54 24 10               	mov	qword ptr [rsp + 0x10], r10
 2000389: 4c 09 d9                     	or	rcx, r11
 200038c: 4c 21 e2                     	and	rdx, r12
 200038f: 49 bb ff ff ff ff ff ff 00 ff	movabs	r11, -0xff000000000001
 2000399: 48 21 e9                     	and	rcx, rbp
 200039c: 48 09 da                     	or	rdx, rbx
 200039f: 48 8b 5c 24 10               	mov	rbx, qword ptr [rsp + 0x10]
 20003a4: 4c 09 d1                     	or	rcx, r10
 20003a7: 4d 89 ca                     	mov	r10, r9
 20003aa: 48 21 ea                     	and	rdx, rbp
 20003ad: 49 c1 e1 38                  	shl	r9, 0x38
 20003b1: 49 c1 e2 30                  	shl	r10, 0x30
 20003b5: 48 09 da                     	or	rdx, rbx
 20003b8: 4c 21 d9                     	and	rcx, r11
 20003bb: 4c 89 54 24 18               	mov	qword ptr [rsp + 0x18], r10
 20003c0: 48 8b 5c 24 18               	mov	rbx, qword ptr [rsp + 0x18]
 20003c5: 4c 21 da                     	and	rdx, r11
 20003c8: 4c 09 d1                     	or	rcx, r10
 20003cb: 49 ba ff ff ff ff ff ff ff 00	movabs	r10, 0xffffffffffffff
 20003d5: 49 89 f3                     	mov	r11, rsi
 20003d8: 48 09 da                     	or	rdx, rbx
 20003db: 4c 21 d1                     	and	rcx, r10
 20003de: 4c 21 d2                     	and	rdx, r10
 20003e1: 4c 09 c9                     	or	rcx, r9
 20003e4: 49 09 d1                     	or	r9, rdx
 20003e7: 48 8d 54 37 f0               	lea	rdx, [rdi + rsi - 0x10]
 20003ec: 49 83 e3 f0                  	and	r11, -0x10
 20003f0: 49 89 d2                     	mov	r10, rdx
 20003f3: 4d 29 da                     	sub	r10, r11
 20003f6: 66 2e 0f 1f 84 00 00 00 00 00	nop	word ptr cs:[rax + rax]
 2000400: 48 89 0a                     	mov	qword ptr [rdx], rcx
 2000403: 48 83 ea 10                  	sub	rdx, 0x10
 2000407: 4c 89 4a 18                  	mov	qword ptr [rdx + 0x18], r9
 200040b: 4c 39 d2                     	cmp	rdx, r10
 200040e: 75 f0                        	jne	0x2000400 <memset+0x230>
 2000410: 48 89 f2                     	mov	rdx, rsi
 2000413: 48 83 e2 f0                  	and	rdx, -0x10
 2000417: 48 29 d0                     	sub	rax, rdx
 200041a: 83 e6 0f                     	and	esi, 0xf
 200041d: 74 0b                        	je	0x200042a <memset+0x25a>
 200041f: 90                           	nop
 2000420: 44 88 04 07                  	mov	byte ptr [rdi + rax], r8b
 2000424: 48 83 e8 01                  	sub	rax, 0x1
 2000428: 73 f6                        	jae	0x2000420 <memset+0x250>
 200042a: 48 83 c4 28                  	add	rsp, 0x28
 200042e: 48 89 f8                     	mov	rax, rdi
 2000431: 5b                           	pop	rbx
 2000432: 5d                           	pop	rbp
 2000433: 41 5c                        	pop	r12
 2000435: 41 5d                        	pop	r13
 2000437: 41 5e                        	pop	r14
 2000439: 41 5f                        	pop	r15
 200043b: c3                           	ret
 200043c: 0f 1f 40 00                  	nop	dword ptr [rax]
 2000440: 48 89 f8                     	mov	rax, rdi
 2000443: c3                           	ret
 2000444: 66 2e 0f 1f 84 00 00 00 00 00	nop	word ptr cs:[rax + rax]
 200044e: 66 90                        	nop

0000000002000450 <demo3d>:
 2000450: 41 57                        	push	r15
 2000452: bf 40 00 00 00               	mov	edi, 0x40
 2000457: 31 c0                        	xor	eax, eax
 2000459: 41 56                        	push	r14
 200045b: 45 31 f6                     	xor	r14d, r14d
 200045e: 41 55                        	push	r13
 2000460: 41 54                        	push	r12
 2000462: 49 bc 00 00 00 00 00 00 00 c0	movabs	r12, -0x4000000000000000
 200046c: 55                           	push	rbp
 200046d: 53                           	push	rbx
 200046e: 31 db                        	xor	ebx, ebx
 2000470: 48 81 ec 58 01 00 00         	sub	rsp, 0x158
 2000477: e8 14 3a 00 00               	call	0x2003e90 <_syscall>
 200047c: 31 f6                        	xor	esi, esi
 200047e: bf 41 00 00 00               	mov	edi, 0x41
 2000483: 49 89 c5                     	mov	r13, rax
 2000486: 31 c0                        	xor	eax, eax
 2000488: e8 03 3a 00 00               	call	0x2003e90 <_syscall>
 200048d: bf 50 00 00 00               	mov	edi, 0x50
 2000492: 31 c0                        	xor	eax, eax
 2000494: e8 f7 39 00 00               	call	0x2003e90 <_syscall>
 2000499: 0f 57 ed                     	xorps	xmm5, xmm5
 200049c: 0f 57 d2                     	xorps	xmm2, xmm2
 200049f: 0f 57 c0                     	xorps	xmm0, xmm0
 20004a2: 0f 12 25 c7 3b 00 00         	movlps	xmm4, qword ptr [rip + 0x3bc7] # xmm4 = mem[0,1],xmm4[2,3]
                                                                        # 0x2004070 <gfx_present+0x10b>
 20004a9: 0f 28 dd                     	movaps	xmm3, xmm5
 20004ac: 48 89 c5                     	mov	rbp, rax
 20004af: f3 0f 10 0d 5d 3b 00 00      	movss	xmm1, dword ptr [rip + 0x3b5d] # 0x2004014 <gfx_present+0xaf>
 20004b7: 48 8d bc 24 80 00 00 00      	lea	rdi, [rsp + 0x80]
 20004bf: e8 dc 17 00 00               	call	0x2001ca0 <mat_lookat>
 20004c4: f3 0f 10 1d 4c 3b 00 00      	movss	xmm3, dword ptr [rip + 0x3b4c] # 0x2004018 <gfx_present+0xb3>
 20004cc: f3 0f 10 15 48 3b 00 00      	movss	xmm2, dword ptr [rip + 0x3b48] # 0x200401c <gfx_present+0xb7>
 20004d4: 48 8d bc 24 c0 00 00 00      	lea	rdi, [rsp + 0xc0]
 20004dc: f3 0f 10 0d 3c 3b 00 00      	movss	xmm1, dword ptr [rip + 0x3b3c] # 0x2004020 <gfx_present+0xbb>
 20004e4: f3 0f 10 05 38 3b 00 00      	movss	xmm0, dword ptr [rip + 0x3b38] # 0x2004024 <gfx_present+0xbf>
 20004ec: e8 0f 0f 00 00               	call	0x2001400 <mat_perspective>
 20004f1: 48 8d b4 24 80 00 00 00      	lea	rsi, [rsp + 0x80]
 20004f9: 31 ff                        	xor	edi, edi
 20004fb: e8 5d 3a 00 00               	call	0x2003f5d <gfx_setMatrix>
 2000500: 48 8d b4 24 c0 00 00 00      	lea	rsi, [rsp + 0xc0]
 2000508: bf 01 00 00 00               	mov	edi, 0x1
 200050d: e8 4b 3a 00 00               	call	0x2003f5d <gfx_setMatrix>
 2000512: c7 44 24 3c 00 00 40 3f      	mov	dword ptr [rsp + 0x3c], 0x3f400000
 200051a: 48 b8 00 00 00 3f 00 00 80 3e	movabs	rax, 0x3e8000003f000000
 2000524: 48 89 44 24 34               	mov	qword ptr [rsp + 0x34], rax
 2000529: 0f 1f 80 00 00 00 00         	nop	dword ptr [rax]
 2000530: 0f 28 35 f9 3a 00 00         	movaps	xmm6, xmmword ptr [rip + 0x3af9] # 0x2004030 <gfx_present+0xcb>
 2000537: 0f 28 3d 02 3b 00 00         	movaps	xmm7, xmmword ptr [rip + 0x3b02] # 0x2004040 <gfx_present+0xdb>
 200053e: bf 20 00 20 00               	mov	edi, 0x200020
 2000543: 4c 89 a4 24 40 01 00 00      	mov	qword ptr [rsp + 0x140], r12
 200054b: 0f 28 25 fe 3a 00 00         	movaps	xmm4, xmmword ptr [rip + 0x3afe] # 0x2004050 <gfx_present+0xeb>
 2000552: 0f 28 2d 07 3b 00 00         	movaps	xmm5, xmmword ptr [rip + 0x3b07] # 0x2004060 <gfx_present+0xfb>
 2000559: 0f 29 b4 24 00 01 00 00      	movaps	xmmword ptr [rsp + 0x100], xmm6
 2000561: 0f 29 bc 24 10 01 00 00      	movaps	xmmword ptr [rsp + 0x110], xmm7
 2000569: 0f 29 a4 24 20 01 00 00      	movaps	xmmword ptr [rsp + 0x120], xmm4
 2000571: 0f 29 ac 24 30 01 00 00      	movaps	xmmword ptr [rsp + 0x130], xmm5
 2000579: e8 bf 39 00 00               	call	0x2003f3d <gfx_clear>
 200057e: 0f 12 44 24 34               	movlps	xmm0, qword ptr [rsp + 0x34] # xmm0 = mem[0,1],xmm0[2,3]
 2000583: f3 0f 10 4c 24 3c            	movss	xmm1, dword ptr [rsp + 0x3c]
 2000589: be 02 00 00 00               	mov	esi, 0x2
 200058e: 48 8d bc 24 00 01 00 00      	lea	rdi, [rsp + 0x100]
 2000596: e8 aa 39 00 00               	call	0x2003f45 <gfx_drawPrimitives>
 200059b: 31 c0                        	xor	eax, eax
 200059d: e8 c3 39 00 00               	call	0x2003f65 <gfx_present>
 20005a2: 4d 85 f6                     	test	r14, r14
 20005a5: 0f 84 95 00 00 00            	je	0x2000640 <demo3d+0x1f0>
 20005ab: 48 8d 04 9b                  	lea	rax, [rbx + 4*rbx]
 20005af: 31 d2                        	xor	edx, edx
 20005b1: 48 8d 7c 24 40               	lea	rdi, [rsp + 0x40]
 20005b6: be 00 40 00 02               	mov	esi, 0x2004000
 20005bb: 48 8d 04 43                  	lea	rax, [rbx + 2*rax]
 20005bf: 48 8d 04 80                  	lea	rax, [rax + 4*rax]
 20005c3: 49 f7 f6                     	div	r14
 20005c6: 49 83 c6 01                  	add	r14, 0x1
 20005ca: 48 89 c2                     	mov	rdx, rax
 20005cd: 31 c0                        	xor	eax, eax
 20005cf: e8 2c 2d 00 00               	call	0x2003300 <sprintf>
 20005d4: 41 b9 01 00 00 00            	mov	r9d, 0x1
 20005da: 45 31 c0                     	xor	r8d, r8d
 20005dd: 31 f6                        	xor	esi, esi
 20005df: b9 ff ff ff 00               	mov	ecx, 0xffffff
 20005e4: 48 8d 54 24 40               	lea	rdx, [rsp + 0x40]
 20005e9: 31 ff                        	xor	edi, edi
 20005eb: e8 25 39 00 00               	call	0x2003f15 <vga_text>
 20005f0: 31 c0                        	xor	eax, eax
 20005f2: e8 2e 39 00 00               	call	0x2003f25 <vga_present>
 20005f7: 31 c0                        	xor	eax, eax
 20005f9: e8 c7 38 00 00               	call	0x2003ec5 <kbd_getKeyEvent>
 20005fe: bf 50 00 00 00               	mov	edi, 0x50
 2000603: 4c 63 f8                     	movsxd	r15, eax
 2000606: 31 c0                        	xor	eax, eax
 2000608: e8 83 38 00 00               	call	0x2003e90 <_syscall>
 200060d: 48 29 e8                     	sub	rax, rbp
 2000610: 48 89 c3                     	mov	rbx, rax
 2000613: 45 84 ff                     	test	r15b, r15b
 2000616: 0f 84 14 ff ff ff            	je	0x2000530 <demo3d+0xe0>
 200061c: 41 0f b6 f5                  	movzx	esi, r13b
 2000620: bf 41 00 00 00               	mov	edi, 0x41
 2000625: 31 c0                        	xor	eax, eax
 2000627: e8 64 38 00 00               	call	0x2003e90 <_syscall>
 200062c: 48 81 c4 58 01 00 00         	add	rsp, 0x158
 2000633: 31 c0                        	xor	eax, eax
 2000635: 5b                           	pop	rbx
 2000636: 5d                           	pop	rbp
 2000637: 41 5c                        	pop	r12
 2000639: 41 5d                        	pop	r13
 200063b: 41 5e                        	pop	r14
 200063d: 41 5f                        	pop	r15
 200063f: c3                           	ret
 2000640: 31 d2                        	xor	edx, edx
 2000642: be 00 40 00 02               	mov	esi, 0x2004000
 2000647: 48 8d 7c 24 40               	lea	rdi, [rsp + 0x40]
 200064c: 31 c0                        	xor	eax, eax
 200064e: e8 ad 2c 00 00               	call	0x2003300 <sprintf>
 2000653: 41 b9 01 00 00 00            	mov	r9d, 0x1
 2000659: 45 31 c0                     	xor	r8d, r8d
 200065c: 31 f6                        	xor	esi, esi
 200065e: b9 ff ff ff 00               	mov	ecx, 0xffffff
 2000663: 48 8d 54 24 40               	lea	rdx, [rsp + 0x40]
 2000668: 31 ff                        	xor	edi, edi
 200066a: e8 a6 38 00 00               	call	0x2003f15 <vga_text>
 200066f: 31 c0                        	xor	eax, eax
 2000671: e8 af 38 00 00               	call	0x2003f25 <vga_present>
 2000676: 31 c0                        	xor	eax, eax
 2000678: e8 48 38 00 00               	call	0x2003ec5 <kbd_getKeyEvent>
 200067d: bf 50 00 00 00               	mov	edi, 0x50
 2000682: 4c 63 f0                     	movsxd	r14, eax
 2000685: 31 c0                        	xor	eax, eax
 2000687: e8 04 38 00 00               	call	0x2003e90 <_syscall>
 200068c: 48 29 e8                     	sub	rax, rbp
 200068f: 48 89 c3                     	mov	rbx, rax
 2000692: 45 84 f6                     	test	r14b, r14b
 2000695: 75 85                        	jne	0x200061c <demo3d+0x1cc>
 2000697: 41 be 01 00 00 00            	mov	r14d, 0x1
 200069d: e9 8e fe ff ff               	jmp	0x2000530 <demo3d+0xe0>
 20006a2: 66 2e 0f 1f 84 00 00 00 00 00	nop	word ptr cs:[rax + rax]
 20006ac: 0f 1f 40 00                  	nop	dword ptr [rax]

00000000020006b0 <sin>:
 20006b0: 0f 57 db                     	xorps	xmm3, xmm3
 20006b3: f3 0f 10 15 bd 39 00 00      	movss	xmm2, dword ptr [rip + 0x39bd] # 0x2004078 <gfx_present+0x113>
 20006bb: f3 0f 10 0d b9 39 00 00      	movss	xmm1, dword ptr [rip + 0x39b9] # 0x200407c <gfx_present+0x117>
 20006c3: 0f 2f c3                     	comiss	xmm0, xmm3
 20006c6: f3 0f 59 d0                  	mulss	xmm2, xmm0
 20006ca: f3 0f 59 c8                  	mulss	xmm1, xmm0
 20006ce: 77 07                        	ja	0x20006d7 <sin+0x27>
 20006d0: 0f 57 05 b9 39 00 00         	xorps	xmm0, xmmword ptr [rip + 0x39b9] # 0x2004090 <gfx_present+0x12b>
 20006d7: f3 0f 59 c8                  	mulss	xmm1, xmm0
 20006db: f3 0f 58 ca                  	addss	xmm1, xmm2
 20006df: 0f 57 d2                     	xorps	xmm2, xmm2
 20006e2: 0f 2f ca                     	comiss	xmm1, xmm2
 20006e5: 0f 28 c1                     	movaps	xmm0, xmm1
 20006e8: 77 07                        	ja	0x20006f1 <sin+0x41>
 20006ea: 0f 57 05 9f 39 00 00         	xorps	xmm0, xmmword ptr [rip + 0x399f] # 0x2004090 <gfx_present+0x12b>
 20006f1: f3 0f 59 c1                  	mulss	xmm0, xmm1
 20006f5: f3 0f 5c c1                  	subss	xmm0, xmm1
 20006f9: f3 0f 59 05 7f 39 00 00      	mulss	xmm0, dword ptr [rip + 0x397f] # 0x2004080 <gfx_present+0x11b>
 2000701: f3 0f 58 c1                  	addss	xmm0, xmm1
 2000705: c3                           	ret
 2000706: 66 2e 0f 1f 84 00 00 00 00 00	nop	word ptr cs:[rax + rax]

0000000002000710 <cos>:
 2000710: 48 83 ec 08                  	sub	rsp, 0x8
 2000714: dd 05 c6 39 00 00            	fld	qword ptr [rip + 0x39c6] # 0x20040e0 <gfx_present+0x17b>
 200071a: f3 0f 11 04 24               	movss	dword ptr [rsp], xmm0
 200071f: d8 04 24                     	fadd	dword ptr [rsp]
 2000722: dd 1c 24                     	fstp	qword ptr [rsp]
 2000725: dd 04 24                     	fld	qword ptr [rsp]
 2000728: d9 1c 24                     	fstp	dword ptr [rsp]
 200072b: dd 05 b7 39 00 00            	fld	qword ptr [rip + 0x39b7] # 0x20040e8 <gfx_present+0x183>
 2000731: d9 04 24                     	fld	dword ptr [rsp]
 2000734: f3 0f 10 04 24               	movss	xmm0, dword ptr [rsp]
 2000739: db f1                        	fcomi	st, st(1)
 200073b: dd d9                        	fstp	st(1)
 200073d: 76 19                        	jbe	0x2000758 <cos+0x48>
 200073f: dc 25 ab 39 00 00            	fsub	qword ptr [rip + 0x39ab] # 0x20040f0 <gfx_present+0x18b>
 2000745: dd 1c 24                     	fstp	qword ptr [rsp]
 2000748: dd 04 24                     	fld	qword ptr [rsp]
 200074b: d9 1c 24                     	fstp	dword ptr [rsp]
 200074e: f3 0f 10 04 24               	movss	xmm0, dword ptr [rsp]
 2000753: eb 05                        	jmp	0x200075a <cos+0x4a>
 2000755: 0f 1f 00                     	nop	dword ptr [rax]
 2000758: dd d8                        	fstp	st(0)
 200075a: 0f 57 db                     	xorps	xmm3, xmm3
 200075d: f3 0f 10 15 13 39 00 00      	movss	xmm2, dword ptr [rip + 0x3913] # 0x2004078 <gfx_present+0x113>
 2000765: f3 0f 10 0d 0f 39 00 00      	movss	xmm1, dword ptr [rip + 0x390f] # 0x200407c <gfx_present+0x117>
 200076d: 0f 2f c3                     	comiss	xmm0, xmm3
 2000770: f3 0f 59 d0                  	mulss	xmm2, xmm0
 2000774: f3 0f 59 c8                  	mulss	xmm1, xmm0
 2000778: 77 07                        	ja	0x2000781 <cos+0x71>
 200077a: 0f 57 05 0f 39 00 00         	xorps	xmm0, xmmword ptr [rip + 0x390f] # 0x2004090 <gfx_present+0x12b>
 2000781: f3 0f 59 c8                  	mulss	xmm1, xmm0
 2000785: f3 0f 58 ca                  	addss	xmm1, xmm2
 2000789: 0f 57 d2                     	xorps	xmm2, xmm2
 200078c: 0f 2f ca                     	comiss	xmm1, xmm2
 200078f: 0f 28 c1                     	movaps	xmm0, xmm1
 2000792: 77 07                        	ja	0x200079b <cos+0x8b>
 2000794: 0f 57 05 f5 38 00 00         	xorps	xmm0, xmmword ptr [rip + 0x38f5] # 0x2004090 <gfx_present+0x12b>
 200079b: f3 0f 59 c1                  	mulss	xmm0, xmm1
 200079f: f3 0f 5c c1                  	subss	xmm0, xmm1
 20007a3: f3 0f 59 05 d5 38 00 00      	mulss	xmm0, dword ptr [rip + 0x38d5] # 0x2004080 <gfx_present+0x11b>
 20007ab: 48 83 c4 08                  	add	rsp, 0x8
 20007af: f3 0f 58 c1                  	addss	xmm0, xmm1
 20007b3: c3                           	ret
 20007b4: 66 66 2e 0f 1f 84 00 00 00 00 00     	nop	word ptr cs:[rax + rax]
 20007bf: 90                           	nop

00000000020007c0 <tan>:
 20007c0: 0f 28 c8                     	movaps	xmm1, xmm0
 20007c3: 0f 57 f6                     	xorps	xmm6, xmm6
 20007c6: 0f 28 e8                     	movaps	xmm5, xmm0
 20007c9: 48 83 ec 08                  	sub	rsp, 0x8
 20007cd: 0f 2f ce                     	comiss	xmm1, xmm6
 20007d0: f3 0f 10 25 a0 38 00 00      	movss	xmm4, dword ptr [rip + 0x38a0] # 0x2004078 <gfx_present+0x113>
 20007d8: f3 0f 10 15 9c 38 00 00      	movss	xmm2, dword ptr [rip + 0x389c] # 0x200407c <gfx_present+0x117>
 20007e0: 0f 28 d9                     	movaps	xmm3, xmm1
 20007e3: f3 0f 59 ec                  	mulss	xmm5, xmm4
 20007e7: f3 0f 59 c2                  	mulss	xmm0, xmm2
 20007eb: 77 07                        	ja	0x20007f4 <tan+0x34>
 20007ed: 0f 57 1d 9c 38 00 00         	xorps	xmm3, xmmword ptr [rip + 0x389c] # 0x2004090 <gfx_present+0x12b>
 20007f4: f3 0f 59 c3                  	mulss	xmm0, xmm3
 20007f8: f3 0f 58 c5                  	addss	xmm0, xmm5
 20007fc: 0f 57 ed                     	xorps	xmm5, xmm5
 20007ff: 0f 2f c5                     	comiss	xmm0, xmm5
 2000802: 0f 28 d8                     	movaps	xmm3, xmm0
 2000805: 77 07                        	ja	0x200080e <tan+0x4e>
 2000807: 0f 57 1d 82 38 00 00         	xorps	xmm3, xmmword ptr [rip + 0x3882] # 0x2004090 <gfx_present+0x12b>
 200080e: f3 0f 11 0c 24               	movss	dword ptr [rsp], xmm1
 2000813: dd 05 c7 38 00 00            	fld	qword ptr [rip + 0x38c7] # 0x20040e0 <gfx_present+0x17b>
 2000819: d9 04 24                     	fld	dword ptr [rsp]
 200081c: f3 0f 59 d8                  	mulss	xmm3, xmm0
 2000820: f3 0f 10 2d 58 38 00 00      	movss	xmm5, dword ptr [rip + 0x3858] # 0x2004080 <gfx_present+0x11b>
 2000828: de c1                        	faddp	st(1), st
 200082a: f3 0f 5c d8                  	subss	xmm3, xmm0
 200082e: dd 1c 24                     	fstp	qword ptr [rsp]
 2000831: dd 04 24                     	fld	qword ptr [rsp]
 2000834: f3 0f 59 dd                  	mulss	xmm3, xmm5
 2000838: d9 1c 24                     	fstp	dword ptr [rsp]
 200083b: dd 05 a7 38 00 00            	fld	qword ptr [rip + 0x38a7] # 0x20040e8 <gfx_present+0x183>
 2000841: d9 04 24                     	fld	dword ptr [rsp]
 2000844: f3 0f 58 c3                  	addss	xmm0, xmm3
 2000848: f3 0f 10 1c 24               	movss	xmm3, dword ptr [rsp]
 200084d: db f1                        	fcomi	st, st(1)
 200084f: dd d9                        	fstp	st(1)
 2000851: 76 1d                        	jbe	0x2000870 <tan+0xb0>
 2000853: dc 25 97 38 00 00            	fsub	qword ptr [rip + 0x3897] # 0x20040f0 <gfx_present+0x18b>
 2000859: dd 1c 24                     	fstp	qword ptr [rsp]
 200085c: dd 04 24                     	fld	qword ptr [rsp]
 200085f: d9 1c 24                     	fstp	dword ptr [rsp]
 2000862: f3 0f 10 1c 24               	movss	xmm3, dword ptr [rsp]
 2000867: eb 09                        	jmp	0x2000872 <tan+0xb2>
 2000869: 0f 1f 80 00 00 00 00         	nop	dword ptr [rax]
 2000870: dd d8                        	fstp	st(0)
 2000872: f3 0f 59 d3                  	mulss	xmm2, xmm3
 2000876: f3 0f 59 e3                  	mulss	xmm4, xmm3
 200087a: 0f 28 ca                     	movaps	xmm1, xmm2
 200087d: 0f 57 d2                     	xorps	xmm2, xmm2
 2000880: 0f 2f da                     	comiss	xmm3, xmm2
 2000883: 77 07                        	ja	0x200088c <tan+0xcc>
 2000885: 0f 57 1d 04 38 00 00         	xorps	xmm3, xmmword ptr [rip + 0x3804] # 0x2004090 <gfx_present+0x12b>
 200088c: f3 0f 59 cb                  	mulss	xmm1, xmm3
 2000890: 0f 57 db                     	xorps	xmm3, xmm3
 2000893: f3 0f 58 cc                  	addss	xmm1, xmm4
 2000897: 0f 2f cb                     	comiss	xmm1, xmm3
 200089a: 0f 28 d1                     	movaps	xmm2, xmm1
 200089d: 77 07                        	ja	0x20008a6 <tan+0xe6>
 200089f: 0f 57 15 ea 37 00 00         	xorps	xmm2, xmmword ptr [rip + 0x37ea] # 0x2004090 <gfx_present+0x12b>
 20008a6: f3 0f 59 d1                  	mulss	xmm2, xmm1
 20008aa: 48 83 c4 08                  	add	rsp, 0x8
 20008ae: f3 0f 5c d1                  	subss	xmm2, xmm1
 20008b2: f3 0f 59 d5                  	mulss	xmm2, xmm5
 20008b6: f3 0f 58 ca                  	addss	xmm1, xmm2
 20008ba: f3 0f 5e c1                  	divss	xmm0, xmm1
 20008be: c3                           	ret
 20008bf: 90                           	nop

00000000020008c0 <vdot>:
 20008c0: f3 0f 59 cb                  	mulss	xmm1, xmm3
 20008c4: 48 83 ec 20                  	sub	rsp, 0x20
 20008c8: 0f 13 14 24                  	movlps	qword ptr [rsp], xmm2
 20008cc: 0f 13 44 24 10               	movlps	qword ptr [rsp + 0x10], xmm0
 20008d1: f3 0f 10 44 24 10            	movss	xmm0, dword ptr [rsp + 0x10]
 20008d7: f3 0f 59 04 24               	mulss	xmm0, dword ptr [rsp]
 20008dc: f3 0f 10 54 24 14            	movss	xmm2, dword ptr [rsp + 0x14]
 20008e2: f3 0f 59 54 24 04            	mulss	xmm2, dword ptr [rsp + 0x4]
 20008e8: 48 83 c4 20                  	add	rsp, 0x20
 20008ec: f3 0f 58 c2                  	addss	xmm0, xmm2
 20008f0: f3 0f 58 c1                  	addss	xmm0, xmm1
 20008f4: c3                           	ret
 20008f5: 66 66 2e 0f 1f 84 00 00 00 00 00     	nop	word ptr cs:[rax + rax]

0000000002000900 <vcross>:
 2000900: 48 83 ec 48                  	sub	rsp, 0x48
 2000904: 0f 28 f9                     	movaps	xmm7, xmm1
 2000907: 0f 13 44 24 20               	movlps	qword ptr [rsp + 0x20], xmm0
 200090c: f3 0f 10 44 24 24            	movss	xmm0, dword ptr [rsp + 0x24]
 2000912: 0f 13 54 24 10               	movlps	qword ptr [rsp + 0x10], xmm2
 2000917: f3 0f 10 54 24 20            	movss	xmm2, dword ptr [rsp + 0x20]
 200091d: f3 0f 10 6c 24 10            	movss	xmm5, dword ptr [rsp + 0x10]
 2000923: f3 0f 10 74 24 14            	movss	xmm6, dword ptr [rsp + 0x14]
 2000929: 0f 28 e0                     	movaps	xmm4, xmm0
 200092c: f3 0f 59 e3                  	mulss	xmm4, xmm3
 2000930: f3 0f 59 cd                  	mulss	xmm1, xmm5
 2000934: f3 0f 59 da                  	mulss	xmm3, xmm2
 2000938: f3 0f 59 fe                  	mulss	xmm7, xmm6
 200093c: f3 0f 59 d6                  	mulss	xmm2, xmm6
 2000940: f3 0f 59 c5                  	mulss	xmm0, xmm5
 2000944: f3 0f 5c cb                  	subss	xmm1, xmm3
 2000948: f3 0f 5c e7                  	subss	xmm4, xmm7
 200094c: f3 0f 11 4c 24 38            	movss	dword ptr [rsp + 0x38], xmm1
 2000952: 0f 28 ca                     	movaps	xmm1, xmm2
 2000955: 0f 28 d0                     	movaps	xmm2, xmm0
 2000958: f3 0f 11 64 24 34            	movss	dword ptr [rsp + 0x34], xmm4
 200095e: f3 0f 5c ca                  	subss	xmm1, xmm2
 2000962: 0f 12 44 24 34               	movlps	xmm0, qword ptr [rsp + 0x34] # xmm0 = mem[0,1],xmm0[2,3]
 2000967: 48 83 c4 48                  	add	rsp, 0x48
 200096b: c3                           	ret
 200096c: 0f 1f 40 00                  	nop	dword ptr [rax]

0000000002000970 <vabs>:
 2000970: f3 0f 59 c9                  	mulss	xmm1, xmm1
 2000974: 48 83 ec 18                  	sub	rsp, 0x18
 2000978: 0f 13 04 24                  	movlps	qword ptr [rsp], xmm0
 200097c: f3 0f 10 04 24               	movss	xmm0, dword ptr [rsp]
 2000981: f3 0f 10 54 24 04            	movss	xmm2, dword ptr [rsp + 0x4]
 2000987: 48 83 c4 18                  	add	rsp, 0x18
 200098b: f3 0f 59 c0                  	mulss	xmm0, xmm0
 200098f: f3 0f 59 d2                  	mulss	xmm2, xmm2
 2000993: f3 0f 58 c2                  	addss	xmm0, xmm2
 2000997: f3 0f 58 c1                  	addss	xmm0, xmm1
 200099b: e9 e0 34 00 00               	jmp	0x2003e80 <sqrt>

00000000020009a0 <vnorm>:
 20009a0: 48 83 ec 48                  	sub	rsp, 0x48
 20009a4: 0f 13 44 24 20               	movlps	qword ptr [rsp + 0x20], xmm0
 20009a9: f3 0f 10 64 24 20            	movss	xmm4, dword ptr [rsp + 0x20]
 20009af: f3 0f 10 5c 24 24            	movss	xmm3, dword ptr [rsp + 0x24]
 20009b5: f3 0f 11 4c 24 04            	movss	dword ptr [rsp + 0x4], xmm1
 20009bb: 0f 28 c4                     	movaps	xmm0, xmm4
 20009be: 0f 28 d3                     	movaps	xmm2, xmm3
 20009c1: f3 0f 11 64 24 0c            	movss	dword ptr [rsp + 0xc], xmm4
 20009c7: f3 0f 59 d3                  	mulss	xmm2, xmm3
 20009cb: f3 0f 11 5c 24 08            	movss	dword ptr [rsp + 0x8], xmm3
 20009d1: f3 0f 59 c4                  	mulss	xmm0, xmm4
 20009d5: f3 0f 58 c2                  	addss	xmm0, xmm2
 20009d9: 0f 28 d1                     	movaps	xmm2, xmm1
 20009dc: f3 0f 59 d1                  	mulss	xmm2, xmm1
 20009e0: f3 0f 58 c2                  	addss	xmm0, xmm2
 20009e4: e8 97 34 00 00               	call	0x2003e80 <sqrt>
 20009e9: f3 0f 10 64 24 0c            	movss	xmm4, dword ptr [rsp + 0xc]
 20009ef: f3 0f 10 5c 24 08            	movss	xmm3, dword ptr [rsp + 0x8]
 20009f5: f3 0f 10 4c 24 04            	movss	xmm1, dword ptr [rsp + 0x4]
 20009fb: 0f 28 d0                     	movaps	xmm2, xmm0
 20009fe: f3 0f 5e e0                  	divss	xmm4, xmm0
 2000a02: f3 0f 5e d8                  	divss	xmm3, xmm0
 2000a06: f3 0f 11 64 24 34            	movss	dword ptr [rsp + 0x34], xmm4
 2000a0c: f3 0f 5e ca                  	divss	xmm1, xmm2
 2000a10: f3 0f 11 5c 24 38            	movss	dword ptr [rsp + 0x38], xmm3
 2000a16: 0f 12 44 24 34               	movlps	xmm0, qword ptr [rsp + 0x34] # xmm0 = mem[0,1],xmm0[2,3]
 2000a1b: 48 83 c4 48                  	add	rsp, 0x48
 2000a1f: c3                           	ret

0000000002000a20 <vadd>:
 2000a20: 48 83 ec 48                  	sub	rsp, 0x48
 2000a24: f3 0f 58 cb                  	addss	xmm1, xmm3
 2000a28: 0f 13 54 24 10               	movlps	qword ptr [rsp + 0x10], xmm2
 2000a2d: 0f 13 44 24 20               	movlps	qword ptr [rsp + 0x20], xmm0
 2000a32: f3 0f 10 44 24 24            	movss	xmm0, dword ptr [rsp + 0x24]
 2000a38: f3 0f 10 54 24 20            	movss	xmm2, dword ptr [rsp + 0x20]
 2000a3e: f3 0f 58 44 24 14            	addss	xmm0, dword ptr [rsp + 0x14]
 2000a44: f3 0f 58 54 24 10            	addss	xmm2, dword ptr [rsp + 0x10]
 2000a4a: f3 0f 11 44 24 38            	movss	dword ptr [rsp + 0x38], xmm0
 2000a50: f3 0f 11 54 24 34            	movss	dword ptr [rsp + 0x34], xmm2
 2000a56: 0f 12 44 24 34               	movlps	xmm0, qword ptr [rsp + 0x34] # xmm0 = mem[0,1],xmm0[2,3]
 2000a5b: 48 83 c4 48                  	add	rsp, 0x48
 2000a5f: c3                           	ret

0000000002000a60 <vadds>:
 2000a60: 48 83 ec 38                  	sub	rsp, 0x38
 2000a64: f3 0f 58 ca                  	addss	xmm1, xmm2
 2000a68: 0f 13 44 24 10               	movlps	qword ptr [rsp + 0x10], xmm0
 2000a6d: f3 0f 10 44 24 14            	movss	xmm0, dword ptr [rsp + 0x14]
 2000a73: f3 0f 10 5c 24 10            	movss	xmm3, dword ptr [rsp + 0x10]
 2000a79: f3 0f 58 c2                  	addss	xmm0, xmm2
 2000a7d: f3 0f 58 da                  	addss	xmm3, xmm2
 2000a81: f3 0f 11 44 24 28            	movss	dword ptr [rsp + 0x28], xmm0
 2000a87: f3 0f 11 5c 24 24            	movss	dword ptr [rsp + 0x24], xmm3
 2000a8d: 0f 12 44 24 24               	movlps	xmm0, qword ptr [rsp + 0x24] # xmm0 = mem[0,1],xmm0[2,3]
 2000a92: 48 83 c4 38                  	add	rsp, 0x38
 2000a96: c3                           	ret
 2000a97: 66 0f 1f 84 00 00 00 00 00   	nop	word ptr [rax + rax]

0000000002000aa0 <vsub>:
 2000aa0: 48 83 ec 48                  	sub	rsp, 0x48
 2000aa4: f3 0f 5c cb                  	subss	xmm1, xmm3
 2000aa8: 0f 13 54 24 10               	movlps	qword ptr [rsp + 0x10], xmm2
 2000aad: 0f 13 44 24 20               	movlps	qword ptr [rsp + 0x20], xmm0
 2000ab2: f3 0f 10 44 24 24            	movss	xmm0, dword ptr [rsp + 0x24]
 2000ab8: f3 0f 10 54 24 20            	movss	xmm2, dword ptr [rsp + 0x20]
 2000abe: f3 0f 5c 44 24 14            	subss	xmm0, dword ptr [rsp + 0x14]
 2000ac4: f3 0f 5c 54 24 10            	subss	xmm2, dword ptr [rsp + 0x10]
 2000aca: f3 0f 11 44 24 38            	movss	dword ptr [rsp + 0x38], xmm0
 2000ad0: f3 0f 11 54 24 34            	movss	dword ptr [rsp + 0x34], xmm2
 2000ad6: 0f 12 44 24 34               	movlps	xmm0, qword ptr [rsp + 0x34] # xmm0 = mem[0,1],xmm0[2,3]
 2000adb: 48 83 c4 48                  	add	rsp, 0x48
 2000adf: c3                           	ret

0000000002000ae0 <vsubs>:
 2000ae0: 48 83 ec 38                  	sub	rsp, 0x38
 2000ae4: f3 0f 5c ca                  	subss	xmm1, xmm2
 2000ae8: 0f 13 44 24 10               	movlps	qword ptr [rsp + 0x10], xmm0
 2000aed: f3 0f 10 44 24 14            	movss	xmm0, dword ptr [rsp + 0x14]
 2000af3: f3 0f 10 5c 24 10            	movss	xmm3, dword ptr [rsp + 0x10]
 2000af9: f3 0f 5c c2                  	subss	xmm0, xmm2
 2000afd: f3 0f 5c da                  	subss	xmm3, xmm2
 2000b01: f3 0f 11 44 24 28            	movss	dword ptr [rsp + 0x28], xmm0
 2000b07: f3 0f 11 5c 24 24            	movss	dword ptr [rsp + 0x24], xmm3
 2000b0d: 0f 12 44 24 24               	movlps	xmm0, qword ptr [rsp + 0x24] # xmm0 = mem[0,1],xmm0[2,3]
 2000b12: 48 83 c4 38                  	add	rsp, 0x38
 2000b16: c3                           	ret
 2000b17: 66 0f 1f 84 00 00 00 00 00   	nop	word ptr [rax + rax]

0000000002000b20 <vmul>:
 2000b20: f3 0f 59 cb                  	mulss	xmm1, xmm3
 2000b24: 48 83 ec 48                  	sub	rsp, 0x48
 2000b28: 0f 13 54 24 10               	movlps	qword ptr [rsp + 0x10], xmm2
 2000b2d: 0f 13 44 24 20               	movlps	qword ptr [rsp + 0x20], xmm0
 2000b32: f3 0f 10 44 24 24            	movss	xmm0, dword ptr [rsp + 0x24]
 2000b38: f3 0f 10 54 24 20            	movss	xmm2, dword ptr [rsp + 0x20]
 2000b3e: f3 0f 59 44 24 14            	mulss	xmm0, dword ptr [rsp + 0x14]
 2000b44: f3 0f 59 54 24 10            	mulss	xmm2, dword ptr [rsp + 0x10]
 2000b4a: f3 0f 11 44 24 38            	movss	dword ptr [rsp + 0x38], xmm0
 2000b50: f3 0f 11 54 24 34            	movss	dword ptr [rsp + 0x34], xmm2
 2000b56: 0f 12 44 24 34               	movlps	xmm0, qword ptr [rsp + 0x34] # xmm0 = mem[0,1],xmm0[2,3]
 2000b5b: 48 83 c4 48                  	add	rsp, 0x48
 2000b5f: c3                           	ret

0000000002000b60 <vmuls>:
 2000b60: f3 0f 59 ca                  	mulss	xmm1, xmm2
 2000b64: 48 83 ec 38                  	sub	rsp, 0x38
 2000b68: 0f 13 44 24 10               	movlps	qword ptr [rsp + 0x10], xmm0
 2000b6d: f3 0f 10 44 24 14            	movss	xmm0, dword ptr [rsp + 0x14]
 2000b73: f3 0f 10 5c 24 10            	movss	xmm3, dword ptr [rsp + 0x10]
 2000b79: f3 0f 59 c2                  	mulss	xmm0, xmm2
 2000b7d: f3 0f 59 da                  	mulss	xmm3, xmm2
 2000b81: f3 0f 11 44 24 28            	movss	dword ptr [rsp + 0x28], xmm0
 2000b87: f3 0f 11 5c 24 24            	movss	dword ptr [rsp + 0x24], xmm3
 2000b8d: 0f 12 44 24 24               	movlps	xmm0, qword ptr [rsp + 0x24] # xmm0 = mem[0,1],xmm0[2,3]
 2000b92: 48 83 c4 38                  	add	rsp, 0x38
 2000b96: c3                           	ret
 2000b97: 66 0f 1f 84 00 00 00 00 00   	nop	word ptr [rax + rax]

0000000002000ba0 <vdiv>:
 2000ba0: f3 0f 5e cb                  	divss	xmm1, xmm3
 2000ba4: 48 83 ec 48                  	sub	rsp, 0x48
 2000ba8: 0f 13 54 24 10               	movlps	qword ptr [rsp + 0x10], xmm2
 2000bad: 0f 13 44 24 20               	movlps	qword ptr [rsp + 0x20], xmm0
 2000bb2: f3 0f 10 44 24 24            	movss	xmm0, dword ptr [rsp + 0x24]
 2000bb8: f3 0f 10 54 24 20            	movss	xmm2, dword ptr [rsp + 0x20]
 2000bbe: f3 0f 5e 44 24 14            	divss	xmm0, dword ptr [rsp + 0x14]
 2000bc4: f3 0f 5e 54 24 10            	divss	xmm2, dword ptr [rsp + 0x10]
 2000bca: f3 0f 11 44 24 38            	movss	dword ptr [rsp + 0x38], xmm0
 2000bd0: f3 0f 11 54 24 34            	movss	dword ptr [rsp + 0x34], xmm2
 2000bd6: 0f 12 44 24 34               	movlps	xmm0, qword ptr [rsp + 0x34] # xmm0 = mem[0,1],xmm0[2,3]
 2000bdb: 48 83 c4 48                  	add	rsp, 0x48
 2000bdf: c3                           	ret

0000000002000be0 <vdivs>:
 2000be0: f3 0f 5e ca                  	divss	xmm1, xmm2
 2000be4: 48 83 ec 38                  	sub	rsp, 0x38
 2000be8: 0f 13 44 24 10               	movlps	qword ptr [rsp + 0x10], xmm0
 2000bed: f3 0f 10 44 24 14            	movss	xmm0, dword ptr [rsp + 0x14]
 2000bf3: f3 0f 10 5c 24 10            	movss	xmm3, dword ptr [rsp + 0x10]
 2000bf9: f3 0f 5e c2                  	divss	xmm0, xmm2
 2000bfd: f3 0f 5e da                  	divss	xmm3, xmm2
 2000c01: f3 0f 11 44 24 28            	movss	dword ptr [rsp + 0x28], xmm0
 2000c07: f3 0f 11 5c 24 24            	movss	dword ptr [rsp + 0x24], xmm3
 2000c0d: 0f 12 44 24 24               	movlps	xmm0, qword ptr [rsp + 0x24] # xmm0 = mem[0,1],xmm0[2,3]
 2000c12: 48 83 c4 38                  	add	rsp, 0x38
 2000c16: c3                           	ret
 2000c17: 66 0f 1f 84 00 00 00 00 00   	nop	word ptr [rax + rax]

0000000002000c20 <vext>:
 2000c20: 48 83 ec 28                  	sub	rsp, 0x28
 2000c24: 0f 14 ca                     	unpcklps	xmm1, xmm2              # xmm1 = xmm1[0],xmm2[0],xmm1[1],xmm2[1]
 2000c27: 0f 13 44 24 10               	movlps	qword ptr [rsp + 0x10], xmm0
 2000c2c: f3 0f 10 54 24 14            	movss	xmm2, dword ptr [rsp + 0x14]
 2000c32: f3 0f 10 44 24 10            	movss	xmm0, dword ptr [rsp + 0x10]
 2000c38: 0f 14 c2                     	unpcklps	xmm0, xmm2              # xmm0 = xmm0[0],xmm2[0],xmm0[1],xmm2[1]
 2000c3b: 0f 28 d8                     	movaps	xmm3, xmm0
 2000c3e: 0f 16 d9                     	movlhps	xmm3, xmm1              # xmm3 = xmm3[0],xmm1[0]
 2000c41: 0f 29 1c 24                  	movaps	xmmword ptr [rsp], xmm3
 2000c45: 48 8b 44 24 08               	mov	rax, qword ptr [rsp + 0x8]
 2000c4a: 0f 12 04 24                  	movlps	xmm0, qword ptr [rsp]   # xmm0 = mem[0,1],xmm0[2,3]
 2000c4e: 48 89 04 24                  	mov	qword ptr [rsp], rax
 2000c52: 0f 12 0c 24                  	movlps	xmm1, qword ptr [rsp]   # xmm1 = mem[0,1],xmm1[2,3]
 2000c56: 48 83 c4 28                  	add	rsp, 0x28
 2000c5a: c3                           	ret
 2000c5b: 0f 1f 44 00 00               	nop	dword ptr [rax + rax]

0000000002000c60 <vred>:
 2000c60: 48 83 ec 38                  	sub	rsp, 0x38
 2000c64: 0f 13 4c 24 08               	movlps	qword ptr [rsp + 0x8], xmm1
 2000c69: f3 0f 10 4c 24 08            	movss	xmm1, dword ptr [rsp + 0x8]
 2000c6f: 48 83 c4 38                  	add	rsp, 0x38
 2000c73: c3                           	ret
 2000c74: 66 66 2e 0f 1f 84 00 00 00 00 00     	nop	word ptr cs:[rax + rax]
 2000c7f: 90                           	nop

0000000002000c80 <vpersp>:
 2000c80: 48 83 ec 38                  	sub	rsp, 0x38
 2000c84: 0f 13 44 24 08               	movlps	qword ptr [rsp + 0x8], xmm0
 2000c89: 48 8b 44 24 08               	mov	rax, qword ptr [rsp + 0x8]
 2000c8e: 0f 13 4c 24 08               	movlps	qword ptr [rsp + 0x8], xmm1
 2000c93: 48 8b 54 24 08               	mov	rdx, qword ptr [rsp + 0x8]
 2000c98: 48 89 c6                     	mov	rsi, rax
 2000c9b: 48 89 d1                     	mov	rcx, rdx
 2000c9e: 48 c1 ee 20                  	shr	rsi, 0x20
 2000ca2: 48 c1 e9 20                  	shr	rcx, 0x20
 2000ca6: 48 89 4c 24 08               	mov	qword ptr [rsp + 0x8], rcx
 2000cab: 0f 12 54 24 08               	movlps	xmm2, qword ptr [rsp + 0x8] # xmm2 = mem[0,1],xmm2[2,3]
 2000cb0: 48 89 74 24 08               	mov	qword ptr [rsp + 0x8], rsi
 2000cb5: f3 0f 10 5c 24 08            	movss	xmm3, dword ptr [rsp + 0x8]
 2000cbb: 89 54 24 08                  	mov	dword ptr [rsp + 0x8], edx
 2000cbf: f3 0f 10 4c 24 08            	movss	xmm1, dword ptr [rsp + 0x8]
 2000cc5: 89 44 24 08                  	mov	dword ptr [rsp + 0x8], eax
 2000cc9: f3 0f 10 44 24 08            	movss	xmm0, dword ptr [rsp + 0x8]
 2000ccf: f3 0f 5e da                  	divss	xmm3, xmm2
 2000cd3: f3 0f 5e c2                  	divss	xmm0, xmm2
 2000cd7: f3 0f 11 5c 24 28            	movss	dword ptr [rsp + 0x28], xmm3
 2000cdd: f3 0f 5e ca                  	divss	xmm1, xmm2
 2000ce1: f3 0f 11 44 24 24            	movss	dword ptr [rsp + 0x24], xmm0
 2000ce7: 0f 12 44 24 24               	movlps	xmm0, qword ptr [rsp + 0x24] # xmm0 = mem[0,1],xmm0[2,3]
 2000cec: 48 83 c4 38                  	add	rsp, 0x38
 2000cf0: c3                           	ret
 2000cf1: 66 66 2e 0f 1f 84 00 00 00 00 00     	nop	word ptr cs:[rax + rax]
 2000cfc: 0f 1f 40 00                  	nop	dword ptr [rax]

0000000002000d00 <v4add>:
 2000d00: 48 83 ec 38                  	sub	rsp, 0x38
 2000d04: 0f 13 4c 24 10               	movlps	qword ptr [rsp + 0x10], xmm1
 2000d09: 48 8b 44 24 10               	mov	rax, qword ptr [rsp + 0x10]
 2000d0e: 0f 13 54 24 20               	movlps	qword ptr [rsp + 0x20], xmm2
 2000d13: 48 89 44 24 08               	mov	qword ptr [rsp + 0x8], rax
 2000d18: 48 8b 44 24 20               	mov	rax, qword ptr [rsp + 0x20]
 2000d1d: 0f 13 5c 24 28               	movlps	qword ptr [rsp + 0x28], xmm3
 2000d22: 48 89 44 24 10               	mov	qword ptr [rsp + 0x10], rax
 2000d27: 48 8b 44 24 28               	mov	rax, qword ptr [rsp + 0x28]
 2000d2c: 0f 13 04 24                  	movlps	qword ptr [rsp], xmm0
 2000d30: 0f 28 24 24                  	movaps	xmm4, xmmword ptr [rsp]
 2000d34: 48 89 44 24 18               	mov	qword ptr [rsp + 0x18], rax
 2000d39: 0f 58 64 24 10               	addps	xmm4, xmmword ptr [rsp + 0x10]
 2000d3e: 0f 29 24 24                  	movaps	xmmword ptr [rsp], xmm4
 2000d42: 48 8b 44 24 08               	mov	rax, qword ptr [rsp + 0x8]
 2000d47: 0f 12 04 24                  	movlps	xmm0, qword ptr [rsp]   # xmm0 = mem[0,1],xmm0[2,3]
 2000d4b: 48 89 04 24                  	mov	qword ptr [rsp], rax
 2000d4f: 0f 12 0c 24                  	movlps	xmm1, qword ptr [rsp]   # xmm1 = mem[0,1],xmm1[2,3]
 2000d53: 48 83 c4 38                  	add	rsp, 0x38
 2000d57: c3                           	ret
 2000d58: 0f 1f 84 00 00 00 00 00      	nop	dword ptr [rax + rax]

0000000002000d60 <v4adds>:
 2000d60: 48 83 ec 28                  	sub	rsp, 0x28
 2000d64: 0f c6 d2 00                  	shufps	xmm2, xmm2, 0x0         # xmm2 = xmm2[0,0,0,0]
 2000d68: 0f 13 4c 24 18               	movlps	qword ptr [rsp + 0x18], xmm1
 2000d6d: 48 8b 44 24 18               	mov	rax, qword ptr [rsp + 0x18]
 2000d72: 0f 13 04 24                  	movlps	qword ptr [rsp], xmm0
 2000d76: 48 89 44 24 08               	mov	qword ptr [rsp + 0x8], rax
 2000d7b: 0f 58 14 24                  	addps	xmm2, xmmword ptr [rsp]
 2000d7f: 0f 29 14 24                  	movaps	xmmword ptr [rsp], xmm2
 2000d83: 48 8b 44 24 08               	mov	rax, qword ptr [rsp + 0x8]
 2000d88: 0f 12 04 24                  	movlps	xmm0, qword ptr [rsp]   # xmm0 = mem[0,1],xmm0[2,3]
 2000d8c: 48 89 04 24                  	mov	qword ptr [rsp], rax
 2000d90: 0f 12 0c 24                  	movlps	xmm1, qword ptr [rsp]   # xmm1 = mem[0,1],xmm1[2,3]
 2000d94: 48 83 c4 28                  	add	rsp, 0x28
 2000d98: c3                           	ret
 2000d99: 0f 1f 80 00 00 00 00         	nop	dword ptr [rax]

0000000002000da0 <v4sub>:
 2000da0: 48 83 ec 38                  	sub	rsp, 0x38
 2000da4: 0f 13 4c 24 10               	movlps	qword ptr [rsp + 0x10], xmm1
 2000da9: 48 8b 44 24 10               	mov	rax, qword ptr [rsp + 0x10]
 2000dae: 0f 13 54 24 20               	movlps	qword ptr [rsp + 0x20], xmm2
 2000db3: 48 89 44 24 08               	mov	qword ptr [rsp + 0x8], rax
 2000db8: 48 8b 44 24 20               	mov	rax, qword ptr [rsp + 0x20]
 2000dbd: 0f 13 5c 24 28               	movlps	qword ptr [rsp + 0x28], xmm3
 2000dc2: 48 89 44 24 10               	mov	qword ptr [rsp + 0x10], rax
 2000dc7: 48 8b 44 24 28               	mov	rax, qword ptr [rsp + 0x28]
 2000dcc: 0f 13 04 24                  	movlps	qword ptr [rsp], xmm0
 2000dd0: 0f 28 24 24                  	movaps	xmm4, xmmword ptr [rsp]
 2000dd4: 48 89 44 24 18               	mov	qword ptr [rsp + 0x18], rax
 2000dd9: 0f 5c 64 24 10               	subps	xmm4, xmmword ptr [rsp + 0x10]
 2000dde: 0f 29 24 24                  	movaps	xmmword ptr [rsp], xmm4
 2000de2: 48 8b 44 24 08               	mov	rax, qword ptr [rsp + 0x8]
 2000de7: 0f 12 04 24                  	movlps	xmm0, qword ptr [rsp]   # xmm0 = mem[0,1],xmm0[2,3]
 2000deb: 48 89 04 24                  	mov	qword ptr [rsp], rax
 2000def: 0f 12 0c 24                  	movlps	xmm1, qword ptr [rsp]   # xmm1 = mem[0,1],xmm1[2,3]
 2000df3: 48 83 c4 38                  	add	rsp, 0x38
 2000df7: c3                           	ret
 2000df8: 0f 1f 84 00 00 00 00 00      	nop	dword ptr [rax + rax]

0000000002000e00 <v4subs>:
 2000e00: 48 83 ec 28                  	sub	rsp, 0x28
 2000e04: 0f c6 d2 00                  	shufps	xmm2, xmm2, 0x0         # xmm2 = xmm2[0,0,0,0]
 2000e08: 0f 13 4c 24 18               	movlps	qword ptr [rsp + 0x18], xmm1
 2000e0d: 48 8b 44 24 18               	mov	rax, qword ptr [rsp + 0x18]
 2000e12: 0f 13 04 24                  	movlps	qword ptr [rsp], xmm0
 2000e16: 48 89 44 24 08               	mov	qword ptr [rsp + 0x8], rax
 2000e1b: 0f 28 1c 24                  	movaps	xmm3, xmmword ptr [rsp]
 2000e1f: 0f 5c da                     	subps	xmm3, xmm2
 2000e22: 0f 29 1c 24                  	movaps	xmmword ptr [rsp], xmm3
 2000e26: 48 8b 44 24 08               	mov	rax, qword ptr [rsp + 0x8]
 2000e2b: 0f 12 04 24                  	movlps	xmm0, qword ptr [rsp]   # xmm0 = mem[0,1],xmm0[2,3]
 2000e2f: 48 89 04 24                  	mov	qword ptr [rsp], rax
 2000e33: 0f 12 0c 24                  	movlps	xmm1, qword ptr [rsp]   # xmm1 = mem[0,1],xmm1[2,3]
 2000e37: 48 83 c4 28                  	add	rsp, 0x28
 2000e3b: c3                           	ret
 2000e3c: 0f 1f 40 00                  	nop	dword ptr [rax]

0000000002000e40 <v4mul>:
 2000e40: 48 83 ec 38                  	sub	rsp, 0x38
 2000e44: 0f 13 4c 24 10               	movlps	qword ptr [rsp + 0x10], xmm1
 2000e49: 48 8b 44 24 10               	mov	rax, qword ptr [rsp + 0x10]
 2000e4e: 0f 13 54 24 20               	movlps	qword ptr [rsp + 0x20], xmm2
 2000e53: 48 89 44 24 08               	mov	qword ptr [rsp + 0x8], rax
 2000e58: 48 8b 44 24 20               	mov	rax, qword ptr [rsp + 0x20]
 2000e5d: 0f 13 5c 24 28               	movlps	qword ptr [rsp + 0x28], xmm3
 2000e62: 48 89 44 24 10               	mov	qword ptr [rsp + 0x10], rax
 2000e67: 48 8b 44 24 28               	mov	rax, qword ptr [rsp + 0x28]
 2000e6c: 0f 13 04 24                  	movlps	qword ptr [rsp], xmm0
 2000e70: 0f 28 24 24                  	movaps	xmm4, xmmword ptr [rsp]
 2000e74: 48 89 44 24 18               	mov	qword ptr [rsp + 0x18], rax
 2000e79: 0f 59 64 24 10               	mulps	xmm4, xmmword ptr [rsp + 0x10]
 2000e7e: 0f 29 24 24                  	movaps	xmmword ptr [rsp], xmm4
 2000e82: 48 8b 44 24 08               	mov	rax, qword ptr [rsp + 0x8]
 2000e87: 0f 12 04 24                  	movlps	xmm0, qword ptr [rsp]   # xmm0 = mem[0,1],xmm0[2,3]
 2000e8b: 48 89 04 24                  	mov	qword ptr [rsp], rax
 2000e8f: 0f 12 0c 24                  	movlps	xmm1, qword ptr [rsp]   # xmm1 = mem[0,1],xmm1[2,3]
 2000e93: 48 83 c4 38                  	add	rsp, 0x38
 2000e97: c3                           	ret
 2000e98: 0f 1f 84 00 00 00 00 00      	nop	dword ptr [rax + rax]

0000000002000ea0 <v4muls>:
 2000ea0: 48 83 ec 28                  	sub	rsp, 0x28
 2000ea4: 0f c6 d2 00                  	shufps	xmm2, xmm2, 0x0         # xmm2 = xmm2[0,0,0,0]
 2000ea8: 0f 13 4c 24 18               	movlps	qword ptr [rsp + 0x18], xmm1
 2000ead: 48 8b 44 24 18               	mov	rax, qword ptr [rsp + 0x18]
 2000eb2: 0f 13 04 24                  	movlps	qword ptr [rsp], xmm0
 2000eb6: 48 89 44 24 08               	mov	qword ptr [rsp + 0x8], rax
 2000ebb: 0f 59 14 24                  	mulps	xmm2, xmmword ptr [rsp]
 2000ebf: 0f 29 14 24                  	movaps	xmmword ptr [rsp], xmm2
 2000ec3: 48 8b 44 24 08               	mov	rax, qword ptr [rsp + 0x8]
 2000ec8: 0f 12 04 24                  	movlps	xmm0, qword ptr [rsp]   # xmm0 = mem[0,1],xmm0[2,3]
 2000ecc: 48 89 04 24                  	mov	qword ptr [rsp], rax
 2000ed0: 0f 12 0c 24                  	movlps	xmm1, qword ptr [rsp]   # xmm1 = mem[0,1],xmm1[2,3]
 2000ed4: 48 83 c4 28                  	add	rsp, 0x28
 2000ed8: c3                           	ret
 2000ed9: 0f 1f 80 00 00 00 00         	nop	dword ptr [rax]

0000000002000ee0 <v4div>:
 2000ee0: 48 83 ec 38                  	sub	rsp, 0x38
 2000ee4: 0f 13 4c 24 10               	movlps	qword ptr [rsp + 0x10], xmm1
 2000ee9: 48 8b 44 24 10               	mov	rax, qword ptr [rsp + 0x10]
 2000eee: 0f 13 54 24 20               	movlps	qword ptr [rsp + 0x20], xmm2
 2000ef3: 48 89 44 24 08               	mov	qword ptr [rsp + 0x8], rax
 2000ef8: 48 8b 44 24 20               	mov	rax, qword ptr [rsp + 0x20]
 2000efd: 0f 13 5c 24 28               	movlps	qword ptr [rsp + 0x28], xmm3
 2000f02: 48 89 44 24 10               	mov	qword ptr [rsp + 0x10], rax
 2000f07: 48 8b 44 24 28               	mov	rax, qword ptr [rsp + 0x28]
 2000f0c: 0f 13 04 24                  	movlps	qword ptr [rsp], xmm0
 2000f10: 0f 28 24 24                  	movaps	xmm4, xmmword ptr [rsp]
 2000f14: 48 89 44 24 18               	mov	qword ptr [rsp + 0x18], rax
 2000f19: 0f 5e 64 24 10               	divps	xmm4, xmmword ptr [rsp + 0x10]
 2000f1e: 0f 29 24 24                  	movaps	xmmword ptr [rsp], xmm4
 2000f22: 48 8b 44 24 08               	mov	rax, qword ptr [rsp + 0x8]
 2000f27: 0f 12 04 24                  	movlps	xmm0, qword ptr [rsp]   # xmm0 = mem[0,1],xmm0[2,3]
 2000f2b: 48 89 04 24                  	mov	qword ptr [rsp], rax
 2000f2f: 0f 12 0c 24                  	movlps	xmm1, qword ptr [rsp]   # xmm1 = mem[0,1],xmm1[2,3]
 2000f33: 48 83 c4 38                  	add	rsp, 0x38
 2000f37: c3                           	ret
 2000f38: 0f 1f 84 00 00 00 00 00      	nop	dword ptr [rax + rax]

0000000002000f40 <v4divs>:
 2000f40: 48 83 ec 28                  	sub	rsp, 0x28
 2000f44: 0f c6 d2 00                  	shufps	xmm2, xmm2, 0x0         # xmm2 = xmm2[0,0,0,0]
 2000f48: 0f 13 4c 24 18               	movlps	qword ptr [rsp + 0x18], xmm1
 2000f4d: 48 8b 44 24 18               	mov	rax, qword ptr [rsp + 0x18]
 2000f52: 0f 13 04 24                  	movlps	qword ptr [rsp], xmm0
 2000f56: 48 89 44 24 08               	mov	qword ptr [rsp + 0x8], rax
 2000f5b: 0f 28 1c 24                  	movaps	xmm3, xmmword ptr [rsp]
 2000f5f: 0f 5e da                     	divps	xmm3, xmm2
 2000f62: 0f 29 1c 24                  	movaps	xmmword ptr [rsp], xmm3
 2000f66: 48 8b 44 24 08               	mov	rax, qword ptr [rsp + 0x8]
 2000f6b: 0f 12 04 24                  	movlps	xmm0, qword ptr [rsp]   # xmm0 = mem[0,1],xmm0[2,3]
 2000f6f: 48 89 04 24                  	mov	qword ptr [rsp], rax
 2000f73: 0f 12 0c 24                  	movlps	xmm1, qword ptr [rsp]   # xmm1 = mem[0,1],xmm1[2,3]
 2000f77: 48 83 c4 28                  	add	rsp, 0x28
 2000f7b: c3                           	ret
 2000f7c: 0f 1f 40 00                  	nop	dword ptr [rax]

0000000002000f80 <madd>:
 2000f80: 48 83 ec 58                  	sub	rsp, 0x58
 2000f84: 48 89 f8                     	mov	rax, rdi
 2000f87: 0f 10 44 24 60               	movups	xmm0, xmmword ptr [rsp + 0x60]
 2000f8c: 0f 10 8c 24 a0 00 00 00      	movups	xmm1, xmmword ptr [rsp + 0xa0]
 2000f94: 0f 10 54 24 70               	movups	xmm2, xmmword ptr [rsp + 0x70]
 2000f99: 0f 10 9c 24 c0 00 00 00      	movups	xmm3, xmmword ptr [rsp + 0xc0]
 2000fa1: 0f 58 c1                     	addps	xmm0, xmm1
 2000fa4: 0f 10 a4 24 90 00 00 00      	movups	xmm4, xmmword ptr [rsp + 0x90]
 2000fac: 0f 13 44 24 08               	movlps	qword ptr [rsp + 0x8], xmm0
 2000fb1: 48 8b 7c 24 08               	mov	rdi, qword ptr [rsp + 0x8]
 2000fb6: 0f 29 44 24 10               	movaps	xmmword ptr [rsp + 0x10], xmm0
 2000fbb: 0f 10 84 24 b0 00 00 00      	movups	xmm0, xmmword ptr [rsp + 0xb0]
 2000fc3: 48 89 38                     	mov	qword ptr [rax], rdi
 2000fc6: 48 8b 7c 24 18               	mov	rdi, qword ptr [rsp + 0x18]
 2000fcb: 0f 58 c2                     	addps	xmm0, xmm2
 2000fce: 48 89 78 08                  	mov	qword ptr [rax + 0x8], rdi
 2000fd2: 0f 13 44 24 08               	movlps	qword ptr [rsp + 0x8], xmm0
 2000fd7: 48 8b 74 24 08               	mov	rsi, qword ptr [rsp + 0x8]
 2000fdc: 0f 29 44 24 20               	movaps	xmmword ptr [rsp + 0x20], xmm0
 2000fe1: 0f 10 84 24 80 00 00 00      	movups	xmm0, xmmword ptr [rsp + 0x80]
 2000fe9: 48 89 70 10                  	mov	qword ptr [rax + 0x10], rsi
 2000fed: 48 8b 74 24 28               	mov	rsi, qword ptr [rsp + 0x28]
 2000ff2: 0f 58 c3                     	addps	xmm0, xmm3
 2000ff5: 48 89 70 18                  	mov	qword ptr [rax + 0x18], rsi
 2000ff9: 0f 13 44 24 08               	movlps	qword ptr [rsp + 0x8], xmm0
 2000ffe: 48 8b 4c 24 08               	mov	rcx, qword ptr [rsp + 0x8]
 2001003: 0f 29 44 24 30               	movaps	xmmword ptr [rsp + 0x30], xmm0
 2001008: 0f 10 84 24 d0 00 00 00      	movups	xmm0, xmmword ptr [rsp + 0xd0]
 2001010: 48 89 48 20                  	mov	qword ptr [rax + 0x20], rcx
 2001014: 48 8b 4c 24 38               	mov	rcx, qword ptr [rsp + 0x38]
 2001019: 0f 58 c4                     	addps	xmm0, xmm4
 200101c: 48 89 48 28                  	mov	qword ptr [rax + 0x28], rcx
 2001020: 0f 13 44 24 08               	movlps	qword ptr [rsp + 0x8], xmm0
 2001025: 48 8b 54 24 08               	mov	rdx, qword ptr [rsp + 0x8]
 200102a: 0f 29 44 24 40               	movaps	xmmword ptr [rsp + 0x40], xmm0
 200102f: 48 89 50 30                  	mov	qword ptr [rax + 0x30], rdx
 2001033: 48 8b 54 24 48               	mov	rdx, qword ptr [rsp + 0x48]
 2001038: 48 89 50 38                  	mov	qword ptr [rax + 0x38], rdx
 200103c: 48 83 c4 58                  	add	rsp, 0x58
 2001040: c3                           	ret
 2001041: 66 66 2e 0f 1f 84 00 00 00 00 00     	nop	word ptr cs:[rax + rax]
 200104c: 0f 1f 40 00                  	nop	dword ptr [rax]

0000000002001050 <msub>:
 2001050: 48 83 ec 58                  	sub	rsp, 0x58
 2001054: 48 89 f8                     	mov	rax, rdi
 2001057: 0f 10 44 24 60               	movups	xmm0, xmmword ptr [rsp + 0x60]
 200105c: 0f 10 8c 24 a0 00 00 00      	movups	xmm1, xmmword ptr [rsp + 0xa0]
 2001064: 0f 10 94 24 b0 00 00 00      	movups	xmm2, xmmword ptr [rsp + 0xb0]
 200106c: 0f 10 9c 24 c0 00 00 00      	movups	xmm3, xmmword ptr [rsp + 0xc0]
 2001074: 0f 5c c1                     	subps	xmm0, xmm1
 2001077: 0f 10 a4 24 d0 00 00 00      	movups	xmm4, xmmword ptr [rsp + 0xd0]
 200107f: 0f 13 44 24 08               	movlps	qword ptr [rsp + 0x8], xmm0
 2001084: 48 8b 7c 24 08               	mov	rdi, qword ptr [rsp + 0x8]
 2001089: 0f 29 44 24 10               	movaps	xmmword ptr [rsp + 0x10], xmm0
 200108e: 0f 10 44 24 70               	movups	xmm0, xmmword ptr [rsp + 0x70]
 2001093: 48 89 38                     	mov	qword ptr [rax], rdi
 2001096: 48 8b 7c 24 18               	mov	rdi, qword ptr [rsp + 0x18]
 200109b: 0f 5c c2                     	subps	xmm0, xmm2
 200109e: 48 89 78 08                  	mov	qword ptr [rax + 0x8], rdi
 20010a2: 0f 13 44 24 08               	movlps	qword ptr [rsp + 0x8], xmm0
 20010a7: 48 8b 74 24 08               	mov	rsi, qword ptr [rsp + 0x8]
 20010ac: 0f 29 44 24 20               	movaps	xmmword ptr [rsp + 0x20], xmm0
 20010b1: 0f 10 84 24 80 00 00 00      	movups	xmm0, xmmword ptr [rsp + 0x80]
 20010b9: 48 89 70 10                  	mov	qword ptr [rax + 0x10], rsi
 20010bd: 48 8b 74 24 28               	mov	rsi, qword ptr [rsp + 0x28]
 20010c2: 0f 5c c3                     	subps	xmm0, xmm3
 20010c5: 48 89 70 18                  	mov	qword ptr [rax + 0x18], rsi
 20010c9: 0f 13 44 24 08               	movlps	qword ptr [rsp + 0x8], xmm0
 20010ce: 48 8b 4c 24 08               	mov	rcx, qword ptr [rsp + 0x8]
 20010d3: 0f 29 44 24 30               	movaps	xmmword ptr [rsp + 0x30], xmm0
 20010d8: 0f 10 84 24 90 00 00 00      	movups	xmm0, xmmword ptr [rsp + 0x90]
 20010e0: 48 89 48 20                  	mov	qword ptr [rax + 0x20], rcx
 20010e4: 48 8b 4c 24 38               	mov	rcx, qword ptr [rsp + 0x38]
 20010e9: 0f 5c c4                     	subps	xmm0, xmm4
 20010ec: 48 89 48 28                  	mov	qword ptr [rax + 0x28], rcx
 20010f0: 0f 13 44 24 08               	movlps	qword ptr [rsp + 0x8], xmm0
 20010f5: 48 8b 54 24 08               	mov	rdx, qword ptr [rsp + 0x8]
 20010fa: 0f 29 44 24 40               	movaps	xmmword ptr [rsp + 0x40], xmm0
 20010ff: 48 89 50 30                  	mov	qword ptr [rax + 0x30], rdx
 2001103: 48 8b 54 24 48               	mov	rdx, qword ptr [rsp + 0x48]
 2001108: 48 89 50 38                  	mov	qword ptr [rax + 0x38], rdx
 200110c: 48 83 c4 58                  	add	rsp, 0x58
 2001110: c3                           	ret
 2001111: 66 66 2e 0f 1f 84 00 00 00 00 00     	nop	word ptr cs:[rax + rax]
 200111c: 0f 1f 40 00                  	nop	dword ptr [rax]

0000000002001120 <mmul>:
 2001120: 48 83 ec 58                  	sub	rsp, 0x58
 2001124: 0f 57 ed                     	xorps	xmm5, xmm5
 2001127: 48 89 f8                     	mov	rax, rdi
 200112a: 0f 10 4c 24 60               	movups	xmm1, xmmword ptr [rsp + 0x60]
 200112f: 0f 10 b4 24 a0 00 00 00      	movups	xmm6, xmmword ptr [rsp + 0xa0]
 2001137: 0f 10 a4 24 b0 00 00 00      	movups	xmm4, xmmword ptr [rsp + 0xb0]
 200113f: 0f 10 9c 24 c0 00 00 00      	movups	xmm3, xmmword ptr [rsp + 0xc0]
 2001147: 0f 28 c1                     	movaps	xmm0, xmm1
 200114a: 0f 28 f9                     	movaps	xmm7, xmm1
 200114d: 0f 10 94 24 d0 00 00 00      	movups	xmm2, xmmword ptr [rsp + 0xd0]
 2001155: 0f c6 c1 00                  	shufps	xmm0, xmm1, 0x0         # xmm0 = xmm0[0,0],xmm1[0,0]
 2001159: 0f 59 c6                     	mulps	xmm0, xmm6
 200115c: 0f c6 f9 55                  	shufps	xmm7, xmm1, 0x55        # xmm7 = xmm7[1,1],xmm1[1,1]
 2001160: 0f 59 fc                     	mulps	xmm7, xmm4
 2001163: 0f 58 c5                     	addps	xmm0, xmm5
 2001166: 0f 58 c7                     	addps	xmm0, xmm7
 2001169: 0f 28 f9                     	movaps	xmm7, xmm1
 200116c: 0f c6 f9 aa                  	shufps	xmm7, xmm1, 0xaa        # xmm7 = xmm7[2,2],xmm1[2,2]
 2001170: 0f 59 fb                     	mulps	xmm7, xmm3
 2001173: 0f c6 c9 ff                  	shufps	xmm1, xmm1, 0xff        # xmm1 = xmm1[3,3,3,3]
 2001177: 0f 59 ca                     	mulps	xmm1, xmm2
 200117a: 0f 58 c7                     	addps	xmm0, xmm7
 200117d: 0f 58 c1                     	addps	xmm0, xmm1
 2001180: 0f 10 4c 24 70               	movups	xmm1, xmmword ptr [rsp + 0x70]
 2001185: 0f 28 f9                     	movaps	xmm7, xmm1
 2001188: 0f 13 44 24 08               	movlps	qword ptr [rsp + 0x8], xmm0
 200118d: 0f c6 f9 55                  	shufps	xmm7, xmm1, 0x55        # xmm7 = xmm7[1,1],xmm1[1,1]
 2001191: 0f 59 fc                     	mulps	xmm7, xmm4
 2001194: 48 8b 7c 24 08               	mov	rdi, qword ptr [rsp + 0x8]
 2001199: 0f 29 44 24 10               	movaps	xmmword ptr [rsp + 0x10], xmm0
 200119e: 0f 28 c1                     	movaps	xmm0, xmm1
 20011a1: 0f c6 c1 00                  	shufps	xmm0, xmm1, 0x0         # xmm0 = xmm0[0,0],xmm1[0,0]
 20011a5: 0f 59 c6                     	mulps	xmm0, xmm6
 20011a8: 48 89 38                     	mov	qword ptr [rax], rdi
 20011ab: 48 8b 7c 24 18               	mov	rdi, qword ptr [rsp + 0x18]
 20011b0: 48 89 78 08                  	mov	qword ptr [rax + 0x8], rdi
 20011b4: 0f 58 c5                     	addps	xmm0, xmm5
 20011b7: 0f 58 c7                     	addps	xmm0, xmm7
 20011ba: 0f 28 f9                     	movaps	xmm7, xmm1
 20011bd: 0f c6 f9 aa                  	shufps	xmm7, xmm1, 0xaa        # xmm7 = xmm7[2,2],xmm1[2,2]
 20011c1: 0f 59 fb                     	mulps	xmm7, xmm3
 20011c4: 0f c6 c9 ff                  	shufps	xmm1, xmm1, 0xff        # xmm1 = xmm1[3,3,3,3]
 20011c8: 0f 59 ca                     	mulps	xmm1, xmm2
 20011cb: 0f 58 c7                     	addps	xmm0, xmm7
 20011ce: 0f 58 c1                     	addps	xmm0, xmm1
 20011d1: 0f 10 8c 24 80 00 00 00      	movups	xmm1, xmmword ptr [rsp + 0x80]
 20011d9: 0f 28 f9                     	movaps	xmm7, xmm1
 20011dc: 0f 13 44 24 08               	movlps	qword ptr [rsp + 0x8], xmm0
 20011e1: 0f c6 f9 55                  	shufps	xmm7, xmm1, 0x55        # xmm7 = xmm7[1,1],xmm1[1,1]
 20011e5: 0f 59 fc                     	mulps	xmm7, xmm4
 20011e8: 48 8b 74 24 08               	mov	rsi, qword ptr [rsp + 0x8]
 20011ed: 0f 29 44 24 20               	movaps	xmmword ptr [rsp + 0x20], xmm0
 20011f2: 0f 28 c1                     	movaps	xmm0, xmm1
 20011f5: 0f c6 c1 00                  	shufps	xmm0, xmm1, 0x0         # xmm0 = xmm0[0,0],xmm1[0,0]
 20011f9: 0f 59 c6                     	mulps	xmm0, xmm6
 20011fc: 48 89 70 10                  	mov	qword ptr [rax + 0x10], rsi
 2001200: 48 8b 74 24 28               	mov	rsi, qword ptr [rsp + 0x28]
 2001205: 48 89 70 18                  	mov	qword ptr [rax + 0x18], rsi
 2001209: 0f 58 c5                     	addps	xmm0, xmm5
 200120c: 0f 58 c7                     	addps	xmm0, xmm7
 200120f: 0f 28 f9                     	movaps	xmm7, xmm1
 2001212: 0f c6 f9 aa                  	shufps	xmm7, xmm1, 0xaa        # xmm7 = xmm7[2,2],xmm1[2,2]
 2001216: 0f 59 fb                     	mulps	xmm7, xmm3
 2001219: 0f c6 c9 ff                  	shufps	xmm1, xmm1, 0xff        # xmm1 = xmm1[3,3,3,3]
 200121d: 0f 59 ca                     	mulps	xmm1, xmm2
 2001220: 0f 58 c7                     	addps	xmm0, xmm7
 2001223: 0f 58 c1                     	addps	xmm0, xmm1
 2001226: 0f 10 8c 24 90 00 00 00      	movups	xmm1, xmmword ptr [rsp + 0x90]
 200122e: 0f 13 44 24 08               	movlps	qword ptr [rsp + 0x8], xmm0
 2001233: 48 8b 4c 24 08               	mov	rcx, qword ptr [rsp + 0x8]
 2001238: 0f 29 44 24 30               	movaps	xmmword ptr [rsp + 0x30], xmm0
 200123d: 0f 28 c1                     	movaps	xmm0, xmm1
 2001240: 0f c6 c1 00                  	shufps	xmm0, xmm1, 0x0         # xmm0 = xmm0[0,0],xmm1[0,0]
 2001244: 0f 59 c6                     	mulps	xmm0, xmm6
 2001247: 48 89 48 20                  	mov	qword ptr [rax + 0x20], rcx
 200124b: 48 8b 4c 24 38               	mov	rcx, qword ptr [rsp + 0x38]
 2001250: 48 89 48 28                  	mov	qword ptr [rax + 0x28], rcx
 2001254: 0f 58 c5                     	addps	xmm0, xmm5
 2001257: 0f 28 e9                     	movaps	xmm5, xmm1
 200125a: 0f c6 e9 55                  	shufps	xmm5, xmm1, 0x55        # xmm5 = xmm5[1,1],xmm1[1,1]
 200125e: 0f 59 e5                     	mulps	xmm4, xmm5
 2001261: 0f 58 c4                     	addps	xmm0, xmm4
 2001264: 0f 28 e1                     	movaps	xmm4, xmm1
 2001267: 0f c6 e1 aa                  	shufps	xmm4, xmm1, 0xaa        # xmm4 = xmm4[2,2],xmm1[2,2]
 200126b: 0f 59 dc                     	mulps	xmm3, xmm4
 200126e: 0f c6 c9 ff                  	shufps	xmm1, xmm1, 0xff        # xmm1 = xmm1[3,3,3,3]
 2001272: 0f 59 ca                     	mulps	xmm1, xmm2
 2001275: 0f 58 c3                     	addps	xmm0, xmm3
 2001278: 0f 58 c1                     	addps	xmm0, xmm1
 200127b: 0f 13 44 24 08               	movlps	qword ptr [rsp + 0x8], xmm0
 2001280: 48 8b 54 24 08               	mov	rdx, qword ptr [rsp + 0x8]
 2001285: 0f 29 44 24 40               	movaps	xmmword ptr [rsp + 0x40], xmm0
 200128a: 48 89 50 30                  	mov	qword ptr [rax + 0x30], rdx
 200128e: 48 8b 54 24 48               	mov	rdx, qword ptr [rsp + 0x48]
 2001293: 48 89 50 38                  	mov	qword ptr [rax + 0x38], rdx
 2001297: 48 83 c4 58                  	add	rsp, 0x58
 200129b: c3                           	ret
 200129c: 0f 1f 40 00                  	nop	dword ptr [rax]

00000000020012a0 <mtrans>:
 20012a0: f3 0f 10 47 04               	movss	xmm0, dword ptr [rdi + 0x4]
 20012a5: f3 0f 10 4f 30               	movss	xmm1, dword ptr [rdi + 0x30]
 20012aa: f3 0f 10 67 20               	movss	xmm4, dword ptr [rdi + 0x20]
 20012af: f3 0f 10 57 08               	movss	xmm2, dword ptr [rdi + 0x8]
 20012b4: 0f 14 c8                     	unpcklps	xmm1, xmm0              # xmm1 = xmm1[0],xmm0[0],xmm1[1],xmm0[1]
 20012b7: f3 0f 10 47 10               	movss	xmm0, dword ptr [rdi + 0x10]
 20012bc: f3 0f 10 5f 0c               	movss	xmm3, dword ptr [rdi + 0xc]
 20012c1: 0f 14 c4                     	unpcklps	xmm0, xmm4              # xmm0 = xmm0[0],xmm4[0],xmm0[1],xmm4[1]
 20012c4: f3 0f 10 67 34               	movss	xmm4, dword ptr [rdi + 0x34]
 20012c9: 0f 16 c1                     	movlhps	xmm0, xmm1              # xmm0 = xmm0[0],xmm1[0]
 20012cc: f3 0f 10 4f 1c               	movss	xmm1, dword ptr [rdi + 0x1c]
 20012d1: 0f 11 47 04                  	movups	xmmword ptr [rdi + 0x4], xmm0
 20012d5: f3 0f 10 47 18               	movss	xmm0, dword ptr [rdi + 0x18]
 20012da: 0f 14 d0                     	unpcklps	xmm2, xmm0              # xmm2 = xmm2[0],xmm0[0],xmm2[1],xmm0[1]
 20012dd: f3 0f 10 47 24               	movss	xmm0, dword ptr [rdi + 0x24]
 20012e2: 0f 14 c4                     	unpcklps	xmm0, xmm4              # xmm0 = xmm0[0],xmm4[0],xmm0[1],xmm4[1]
 20012e5: 0f 16 c2                     	movlhps	xmm0, xmm2              # xmm0 = xmm0[0],xmm2[0]
 20012e8: 0f 11 47 18                  	movups	xmmword ptr [rdi + 0x18], xmm0
 20012ec: f3 0f 10 47 2c               	movss	xmm0, dword ptr [rdi + 0x2c]
 20012f1: 0f 14 c8                     	unpcklps	xmm1, xmm0              # xmm1 = xmm1[0],xmm0[0],xmm1[1],xmm0[1]
 20012f4: f3 0f 10 47 38               	movss	xmm0, dword ptr [rdi + 0x38]
 20012f9: 0f 14 c3                     	unpcklps	xmm0, xmm3              # xmm0 = xmm0[0],xmm3[0],xmm0[1],xmm3[1]
 20012fc: 0f 16 c1                     	movlhps	xmm0, xmm1              # xmm0 = xmm0[0],xmm1[0]
 20012ff: 0f 11 47 2c                  	movups	xmmword ptr [rdi + 0x2c], xmm0
 2001303: c3                           	ret
 2001304: 66 66 2e 0f 1f 84 00 00 00 00 00     	nop	word ptr cs:[rax + rax]
 200130f: 90                           	nop

0000000002001310 <mvmul>:
 2001310: 48 83 ec 28                  	sub	rsp, 0x28
 2001314: 0f 13 04 24                  	movlps	qword ptr [rsp], xmm0
 2001318: f3 0f 10 44 24 50            	movss	xmm0, dword ptr [rsp + 0x50]
 200131e: f3 0f 10 54 24 40            	movss	xmm2, dword ptr [rsp + 0x40]
 2001324: 0f 13 4c 24 18               	movlps	qword ptr [rsp + 0x18], xmm1
 2001329: f3 0f 10 4c 24 60            	movss	xmm1, dword ptr [rsp + 0x60]
 200132f: 48 8b 44 24 18               	mov	rax, qword ptr [rsp + 0x18]
 2001334: f3 0f 10 5c 24 44            	movss	xmm3, dword ptr [rsp + 0x44]
 200133a: 0f 14 c1                     	unpcklps	xmm0, xmm1              # xmm0 = xmm0[0],xmm1[0],xmm0[1],xmm1[1]
 200133d: f3 0f 10 4c 24 30            	movss	xmm1, dword ptr [rsp + 0x30]
 2001343: 48 89 44 24 08               	mov	qword ptr [rsp + 0x8], rax
 2001348: 0f 14 ca                     	unpcklps	xmm1, xmm2              # xmm1 = xmm1[0],xmm2[0],xmm1[1],xmm2[1]
 200134b: f3 0f 10 54 24 54            	movss	xmm2, dword ptr [rsp + 0x54]
 2001351: 0f 16 c8                     	movlhps	xmm1, xmm0              # xmm1 = xmm1[0],xmm0[0]
 2001354: 0f 28 04 24                  	movaps	xmm0, xmmword ptr [rsp]
 2001358: 0f c6 c0 00                  	shufps	xmm0, xmm0, 0x0         # xmm0 = xmm0[0,0,0,0]
 200135c: 0f 59 c8                     	mulps	xmm1, xmm0
 200135f: f3 0f 10 44 24 64            	movss	xmm0, dword ptr [rsp + 0x64]
 2001365: 0f 14 d0                     	unpcklps	xmm2, xmm0              # xmm2 = xmm2[0],xmm0[0],xmm2[1],xmm0[1]
 2001368: f3 0f 10 44 24 34            	movss	xmm0, dword ptr [rsp + 0x34]
 200136e: 0f 14 c3                     	unpcklps	xmm0, xmm3              # xmm0 = xmm0[0],xmm3[0],xmm0[1],xmm3[1]
 2001371: f3 0f 10 5c 24 48            	movss	xmm3, dword ptr [rsp + 0x48]
 2001377: 0f 16 c2                     	movlhps	xmm0, xmm2              # xmm0 = xmm0[0],xmm2[0]
 200137a: 0f 28 14 24                  	movaps	xmm2, xmmword ptr [rsp]
 200137e: 0f c6 d2 55                  	shufps	xmm2, xmm2, 0x55        # xmm2 = xmm2[1,1,1,1]
 2001382: 0f 59 c2                     	mulps	xmm0, xmm2
 2001385: f3 0f 10 54 24 58            	movss	xmm2, dword ptr [rsp + 0x58]
 200138b: 0f 58 c8                     	addps	xmm1, xmm0
 200138e: f3 0f 10 44 24 68            	movss	xmm0, dword ptr [rsp + 0x68]
 2001394: 0f 14 d0                     	unpcklps	xmm2, xmm0              # xmm2 = xmm2[0],xmm0[0],xmm2[1],xmm0[1]
 2001397: f3 0f 10 44 24 38            	movss	xmm0, dword ptr [rsp + 0x38]
 200139d: 0f 14 c3                     	unpcklps	xmm0, xmm3              # xmm0 = xmm0[0],xmm3[0],xmm0[1],xmm3[1]
 20013a0: f3 0f 10 5c 24 5c            	movss	xmm3, dword ptr [rsp + 0x5c]
 20013a6: 0f 16 c2                     	movlhps	xmm0, xmm2              # xmm0 = xmm0[0],xmm2[0]
 20013a9: 0f 28 14 24                  	movaps	xmm2, xmmword ptr [rsp]
 20013ad: 0f c6 d2 aa                  	shufps	xmm2, xmm2, 0xaa        # xmm2 = xmm2[2,2,2,2]
 20013b1: 0f 59 c2                     	mulps	xmm0, xmm2
 20013b4: f3 0f 10 54 24 4c            	movss	xmm2, dword ptr [rsp + 0x4c]
 20013ba: 0f 58 c8                     	addps	xmm1, xmm0
 20013bd: f3 0f 10 44 24 6c            	movss	xmm0, dword ptr [rsp + 0x6c]
 20013c3: 0f 14 d8                     	unpcklps	xmm3, xmm0              # xmm3 = xmm3[0],xmm0[0],xmm3[1],xmm0[1]
 20013c6: f3 0f 10 44 24 3c            	movss	xmm0, dword ptr [rsp + 0x3c]
 20013cc: 0f 14 c2                     	unpcklps	xmm0, xmm2              # xmm0 = xmm0[0],xmm2[0],xmm0[1],xmm2[1]
 20013cf: 0f 28 d0                     	movaps	xmm2, xmm0
 20013d2: 0f 28 04 24                  	movaps	xmm0, xmmword ptr [rsp]
 20013d6: 0f 16 d3                     	movlhps	xmm2, xmm3              # xmm2 = xmm2[0],xmm3[0]
 20013d9: 0f c6 c0 ff                  	shufps	xmm0, xmm0, 0xff        # xmm0 = xmm0[3,3,3,3]
 20013dd: 0f 59 c2                     	mulps	xmm0, xmm2
 20013e0: 0f 58 c8                     	addps	xmm1, xmm0
 20013e3: 0f 29 0c 24                  	movaps	xmmword ptr [rsp], xmm1
 20013e7: 48 8b 44 24 08               	mov	rax, qword ptr [rsp + 0x8]
 20013ec: 0f 12 04 24                  	movlps	xmm0, qword ptr [rsp]   # xmm0 = mem[0,1],xmm0[2,3]
 20013f0: 48 89 04 24                  	mov	qword ptr [rsp], rax
 20013f4: 0f 12 0c 24                  	movlps	xmm1, qword ptr [rsp]   # xmm1 = mem[0,1],xmm1[2,3]
 20013f8: 48 83 c4 28                  	add	rsp, 0x28
 20013fc: c3                           	ret
 20013fd: 0f 1f 00                     	nop	dword ptr [rax]

0000000002001400 <mat_perspective>:
 2001400: 48 83 ec 08                  	sub	rsp, 0x8
 2001404: 45 0f 57 c9                  	xorps	xmm9, xmm9
 2001408: 0f 28 f2                     	movaps	xmm6, xmm2
 200140b: 48 89 f8                     	mov	rax, rdi
 200140e: f3 0f 59 05 6e 2c 00 00      	mulss	xmm0, dword ptr [rip + 0x2c6e] # 0x2004084 <gfx_present+0x11f>
 2001416: f3 0f 10 25 5e 2c 00 00      	movss	xmm4, dword ptr [rip + 0x2c5e] # 0x200407c <gfx_present+0x117>
 200141e: 0f 28 d3                     	movaps	xmm2, xmm3
 2001421: f3 44 0f 10 05 4e 2c 00 00   	movss	xmm8, dword ptr [rip + 0x2c4e] # 0x2004078 <gfx_present+0x113>
 200142a: 41 0f 2f c1                  	comiss	xmm0, xmm9
 200142e: 0f 28 f8                     	movaps	xmm7, xmm0
 2001431: 0f 28 e8                     	movaps	xmm5, xmm0
 2001434: f3 41 0f 59 f8               	mulss	xmm7, xmm8
 2001439: 0f 28 d8                     	movaps	xmm3, xmm0
 200143c: f3 0f 59 ec                  	mulss	xmm5, xmm4
 2001440: 77 07                        	ja	0x2001449 <mat_perspective+0x49>
 2001442: 0f 57 1d 47 2c 00 00         	xorps	xmm3, xmmword ptr [rip + 0x2c47] # 0x2004090 <gfx_present+0x12b>
 2001449: f3 0f 59 eb                  	mulss	xmm5, xmm3
 200144d: f3 0f 58 ef                  	addss	xmm5, xmm7
 2001451: 0f 57 ff                     	xorps	xmm7, xmm7
 2001454: 0f 2f ef                     	comiss	xmm5, xmm7
 2001457: 0f 28 dd                     	movaps	xmm3, xmm5
 200145a: 77 07                        	ja	0x2001463 <mat_perspective+0x63>
 200145c: 0f 57 1d 2d 2c 00 00         	xorps	xmm3, xmmword ptr [rip + 0x2c2d] # 0x2004090 <gfx_present+0x12b>
 2001463: f3 0f 11 04 24               	movss	dword ptr [rsp], xmm0
 2001468: dd 05 72 2c 00 00            	fld	qword ptr [rip + 0x2c72] # 0x20040e0 <gfx_present+0x17b>
 200146e: d9 04 24                     	fld	dword ptr [rsp]
 2001471: f3 0f 59 dd                  	mulss	xmm3, xmm5
 2001475: f3 0f 10 3d 03 2c 00 00      	movss	xmm7, dword ptr [rip + 0x2c03] # 0x2004080 <gfx_present+0x11b>
 200147d: de c1                        	faddp	st(1), st
 200147f: f3 0f 5c dd                  	subss	xmm3, xmm5
 2001483: dd 1c 24                     	fstp	qword ptr [rsp]
 2001486: dd 04 24                     	fld	qword ptr [rsp]
 2001489: f3 0f 59 df                  	mulss	xmm3, xmm7
 200148d: d9 1c 24                     	fstp	dword ptr [rsp]
 2001490: dd 05 52 2c 00 00            	fld	qword ptr [rip + 0x2c52] # 0x20040e8 <gfx_present+0x183>
 2001496: d9 04 24                     	fld	dword ptr [rsp]
 2001499: f3 0f 58 eb                  	addss	xmm5, xmm3
 200149d: f3 0f 10 1c 24               	movss	xmm3, dword ptr [rsp]
 20014a2: db f1                        	fcomi	st, st(1)
 20014a4: dd d9                        	fstp	st(1)
 20014a6: 76 18                        	jbe	0x20014c0 <mat_perspective+0xc0>
 20014a8: dc 25 42 2c 00 00            	fsub	qword ptr [rip + 0x2c42] # 0x20040f0 <gfx_present+0x18b>
 20014ae: dd 1c 24                     	fstp	qword ptr [rsp]
 20014b1: dd 04 24                     	fld	qword ptr [rsp]
 20014b4: d9 1c 24                     	fstp	dword ptr [rsp]
 20014b7: f3 0f 10 1c 24               	movss	xmm3, dword ptr [rsp]
 20014bc: eb 04                        	jmp	0x20014c2 <mat_perspective+0xc2>
 20014be: 66 90                        	nop
 20014c0: dd d8                        	fstp	st(0)
 20014c2: f3 0f 59 e3                  	mulss	xmm4, xmm3
 20014c6: f3 44 0f 59 c3               	mulss	xmm8, xmm3
 20014cb: 0f 28 c4                     	movaps	xmm0, xmm4
 20014ce: 0f 57 e4                     	xorps	xmm4, xmm4
 20014d1: 0f 2f dc                     	comiss	xmm3, xmm4
 20014d4: 77 07                        	ja	0x20014dd <mat_perspective+0xdd>
 20014d6: 0f 57 1d b3 2b 00 00         	xorps	xmm3, xmmword ptr [rip + 0x2bb3] # 0x2004090 <gfx_present+0x12b>
 20014dd: f3 0f 59 c3                  	mulss	xmm0, xmm3
 20014e1: 0f 57 e4                     	xorps	xmm4, xmm4
 20014e4: f3 41 0f 58 c0               	addss	xmm0, xmm8
 20014e9: 0f 2f c4                     	comiss	xmm0, xmm4
 20014ec: 0f 28 d8                     	movaps	xmm3, xmm0
 20014ef: 77 07                        	ja	0x20014f8 <mat_perspective+0xf8>
 20014f1: 0f 57 1d 98 2b 00 00         	xorps	xmm3, xmmword ptr [rip + 0x2b98] # 0x2004090 <gfx_present+0x12b>
 20014f8: f3 0f 59 d8                  	mulss	xmm3, xmm0
 20014fc: ba 00 00 80 bf               	mov	edx, 0xbf800000
 2001501: 48 c7 40 04 00 00 00 00      	mov	qword ptr [rax + 0x4], 0x0
 2001509: 48 c7 40 0c 00 00 00 00      	mov	qword ptr [rax + 0xc], 0x0
 2001511: 48 c7 40 18 00 00 00 00      	mov	qword ptr [rax + 0x18], 0x0
 2001519: 48 c7 40 20 00 00 00 00      	mov	qword ptr [rax + 0x20], 0x0
 2001521: 48 c7 40 30 00 00 00 00      	mov	qword ptr [rax + 0x30], 0x0
 2001529: f3 0f 5c d8                  	subss	xmm3, xmm0
 200152d: 48 89 50 38                  	mov	qword ptr [rax + 0x38], rdx
 2001531: f3 0f 59 df                  	mulss	xmm3, xmm7
 2001535: f3 0f 58 c3                  	addss	xmm0, xmm3
 2001539: 0f 28 de                     	movaps	xmm3, xmm6
 200153c: f3 0f 5c da                  	subss	xmm3, xmm2
 2001540: f3 0f 5e e8                  	divss	xmm5, xmm0
 2001544: f3 0f 10 05 54 2b 00 00      	movss	xmm0, dword ptr [rip + 0x2b54] # 0x20040a0 <gfx_present+0x13b>
 200154c: f3 0f 5e c5                  	divss	xmm0, xmm5
 2001550: 0f 28 e0                     	movaps	xmm4, xmm0
 2001553: f3 0f 11 40 14               	movss	dword ptr [rax + 0x14], xmm0
 2001558: 0f 28 c6                     	movaps	xmm0, xmm6
 200155b: f3 0f 58 c2                  	addss	xmm0, xmm2
 200155f: f3 0f 58 d2                  	addss	xmm2, xmm2
 2001563: f3 0f 5e e1                  	divss	xmm4, xmm1
 2001567: f3 0f 59 d6                  	mulss	xmm2, xmm6
 200156b: f3 0f 5e c3                  	divss	xmm0, xmm3
 200156f: f3 0f 11 20                  	movss	dword ptr [rax], xmm4
 2001573: f3 0f 5e d3                  	divss	xmm2, xmm3
 2001577: f3 0f 11 40 28               	movss	dword ptr [rax + 0x28], xmm0
 200157c: f3 0f 11 50 2c               	movss	dword ptr [rax + 0x2c], xmm2
 2001581: 48 83 c4 08                  	add	rsp, 0x8
 2001585: c3                           	ret
 2001586: 66 2e 0f 1f 84 00 00 00 00 00	nop	word ptr cs:[rax + rax]

0000000002001590 <mat_translation>:
 2001590: 48 ba 00 00 00 00 00 00 80 3f	movabs	rdx, 0x3f80000000000000
 200159a: 48 c7 07 00 00 80 3f         	mov	qword ptr [rdi], 0x3f800000
 20015a1: 48 89 f8                     	mov	rax, rdi
 20015a4: c7 47 08 00 00 00 00         	mov	dword ptr [rdi + 0x8], 0x0
 20015ab: 48 89 57 10                  	mov	qword ptr [rdi + 0x10], rdx
 20015af: c7 47 18 00 00 00 00         	mov	dword ptr [rdi + 0x18], 0x0
 20015b6: 48 c7 47 20 00 00 00 00      	mov	qword ptr [rdi + 0x20], 0x0
 20015be: c7 47 28 00 00 80 3f         	mov	dword ptr [rdi + 0x28], 0x3f800000
 20015c5: 48 c7 47 30 00 00 00 00      	mov	qword ptr [rdi + 0x30], 0x0
 20015cd: 48 89 57 38                  	mov	qword ptr [rdi + 0x38], rdx
 20015d1: f3 0f 11 47 0c               	movss	dword ptr [rdi + 0xc], xmm0
 20015d6: f3 0f 11 4f 1c               	movss	dword ptr [rdi + 0x1c], xmm1
 20015db: f3 0f 11 57 2c               	movss	dword ptr [rdi + 0x2c], xmm2
 20015e0: c3                           	ret
 20015e1: 66 66 2e 0f 1f 84 00 00 00 00 00     	nop	word ptr cs:[rax + rax]
 20015ec: 0f 1f 40 00                  	nop	dword ptr [rax]

00000000020015f0 <mat_rotation>:
 20015f0: 53                           	push	rbx
 20015f1: 0f 28 d8                     	movaps	xmm3, xmm0
 20015f4: 48 89 fb                     	mov	rbx, rdi
 20015f7: 48 83 ec 30                  	sub	rsp, 0x30
 20015fb: dd 05 df 2a 00 00            	fld	qword ptr [rip + 0x2adf] # 0x20040e0 <gfx_present+0x17b>
 2001601: f3 0f 11 44 24 08            	movss	dword ptr [rsp + 0x8], xmm0
 2001607: d9 44 24 08                  	fld	dword ptr [rsp + 0x8]
 200160b: f3 0f 11 54 24 28            	movss	dword ptr [rsp + 0x28], xmm2
 2001611: 0f 13 4c 24 20               	movlps	qword ptr [rsp + 0x20], xmm1
 2001616: de c1                        	faddp	st(1), st
 2001618: dd 5c 24 08                  	fstp	qword ptr [rsp + 0x8]
 200161c: dd 44 24 08                  	fld	qword ptr [rsp + 0x8]
 2001620: d9 5c 24 08                  	fstp	dword ptr [rsp + 0x8]
 2001624: dd 05 be 2a 00 00            	fld	qword ptr [rip + 0x2abe] # 0x20040e8 <gfx_present+0x183>
 200162a: d9 44 24 08                  	fld	dword ptr [rsp + 0x8]
 200162e: f3 0f 10 54 24 08            	movss	xmm2, dword ptr [rsp + 0x8]
 2001634: db f1                        	fcomi	st, st(1)
 2001636: dd d9                        	fstp	st(1)
 2001638: 76 1e                        	jbe	0x2001658 <mat_rotation+0x68>
 200163a: dc 25 b0 2a 00 00            	fsub	qword ptr [rip + 0x2ab0] # 0x20040f0 <gfx_present+0x18b>
 2001640: dd 5c 24 08                  	fstp	qword ptr [rsp + 0x8]
 2001644: dd 44 24 08                  	fld	qword ptr [rsp + 0x8]
 2001648: d9 5c 24 08                  	fstp	dword ptr [rsp + 0x8]
 200164c: f3 0f 10 54 24 08            	movss	xmm2, dword ptr [rsp + 0x8]
 2001652: eb 06                        	jmp	0x200165a <mat_rotation+0x6a>
 2001654: 0f 1f 40 00                  	nop	dword ptr [rax]
 2001658: dd d8                        	fstp	st(0)
 200165a: 0f 57 f6                     	xorps	xmm6, xmm6
 200165d: f3 0f 10 2d 13 2a 00 00      	movss	xmm5, dword ptr [rip + 0x2a13] # 0x2004078 <gfx_present+0x113>
 2001665: 0f 28 e2                     	movaps	xmm4, xmm2
 2001668: 0f 28 ca                     	movaps	xmm1, xmm2
 200166b: 0f 2f d6                     	comiss	xmm2, xmm6
 200166e: f3 0f 10 05 06 2a 00 00      	movss	xmm0, dword ptr [rip + 0x2a06] # 0x200407c <gfx_present+0x117>
 2001676: f3 0f 59 e5                  	mulss	xmm4, xmm5
 200167a: f3 0f 59 c8                  	mulss	xmm1, xmm0
 200167e: 77 07                        	ja	0x2001687 <mat_rotation+0x97>
 2001680: 0f 57 15 09 2a 00 00         	xorps	xmm2, xmmword ptr [rip + 0x2a09] # 0x2004090 <gfx_present+0x12b>
 2001687: f3 0f 59 ca                  	mulss	xmm1, xmm2
 200168b: f3 0f 58 cc                  	addss	xmm1, xmm4
 200168f: 0f 57 e4                     	xorps	xmm4, xmm4
 2001692: 0f 2f cc                     	comiss	xmm1, xmm4
 2001695: 0f 28 d1                     	movaps	xmm2, xmm1
 2001698: 77 07                        	ja	0x20016a1 <mat_rotation+0xb1>
 200169a: 0f 57 15 ef 29 00 00         	xorps	xmm2, xmmword ptr [rip + 0x29ef] # 0x2004090 <gfx_present+0x12b>
 20016a1: f3 0f 59 d1                  	mulss	xmm2, xmm1
 20016a5: f3 0f 10 35 d3 29 00 00      	movss	xmm6, dword ptr [rip + 0x29d3] # 0x2004080 <gfx_present+0x11b>
 20016ad: 0f 28 e1                     	movaps	xmm4, xmm1
 20016b0: f3 0f 59 eb                  	mulss	xmm5, xmm3
 20016b4: f3 0f 59 c3                  	mulss	xmm0, xmm3
 20016b8: f3 0f 5c d1                  	subss	xmm2, xmm1
 20016bc: 0f 57 c9                     	xorps	xmm1, xmm1
 20016bf: 0f 2f d9                     	comiss	xmm3, xmm1
 20016c2: f3 0f 59 d6                  	mulss	xmm2, xmm6
 20016c6: f3 0f 58 e2                  	addss	xmm4, xmm2
 20016ca: 77 07                        	ja	0x20016d3 <mat_rotation+0xe3>
 20016cc: 0f 57 1d bd 29 00 00         	xorps	xmm3, xmmword ptr [rip + 0x29bd] # 0x2004090 <gfx_present+0x12b>
 20016d3: f3 0f 59 c3                  	mulss	xmm0, xmm3
 20016d7: 0f 57 d2                     	xorps	xmm2, xmm2
 20016da: f3 0f 58 c5                  	addss	xmm0, xmm5
 20016de: 0f 2f c2                     	comiss	xmm0, xmm2
 20016e1: 0f 28 c8                     	movaps	xmm1, xmm0
 20016e4: 77 07                        	ja	0x20016ed <mat_rotation+0xfd>
 20016e6: 0f 57 0d a3 29 00 00         	xorps	xmm1, xmmword ptr [rip + 0x29a3] # 0x2004090 <gfx_present+0x12b>
 20016ed: f3 0f 59 c8                  	mulss	xmm1, xmm0
 20016f1: 0f 28 d0                     	movaps	xmm2, xmm0
 20016f4: f3 0f 10 5c 24 24            	movss	xmm3, dword ptr [rsp + 0x24]
 20016fa: f3 0f 11 64 24 1c            	movss	dword ptr [rsp + 0x1c], xmm4
 2001700: 0f 28 eb                     	movaps	xmm5, xmm3
 2001703: f3 0f 11 5c 24 10            	movss	dword ptr [rsp + 0x10], xmm3
 2001709: f3 0f 59 eb                  	mulss	xmm5, xmm3
 200170d: f3 0f 5c c8                  	subss	xmm1, xmm0
 2001711: f3 0f 59 ce                  	mulss	xmm1, xmm6
 2001715: f3 0f 10 74 24 28            	movss	xmm6, dword ptr [rsp + 0x28]
 200171b: f3 0f 11 74 24 08            	movss	dword ptr [rsp + 0x8], xmm6
 2001721: f3 0f 58 d1                  	addss	xmm2, xmm1
 2001725: f3 0f 10 4c 24 20            	movss	xmm1, dword ptr [rsp + 0x20]
 200172b: 0f 28 c1                     	movaps	xmm0, xmm1
 200172e: f3 0f 11 4c 24 14            	movss	dword ptr [rsp + 0x14], xmm1
 2001734: f3 0f 59 c1                  	mulss	xmm0, xmm1
 2001738: f3 0f 11 54 24 18            	movss	dword ptr [rsp + 0x18], xmm2
 200173e: f3 0f 58 c5                  	addss	xmm0, xmm5
 2001742: 0f 28 ee                     	movaps	xmm5, xmm6
 2001745: f3 0f 59 ee                  	mulss	xmm5, xmm6
 2001749: f3 0f 58 c5                  	addss	xmm0, xmm5
 200174d: e8 2e 27 00 00               	call	0x2003e80 <sqrt>
 2001752: f3 0f 10 4c 24 14            	movss	xmm1, dword ptr [rsp + 0x14]
 2001758: 48 89 d8                     	mov	rax, rbx
 200175b: f3 0f 10 5c 24 10            	movss	xmm3, dword ptr [rsp + 0x10]
 2001761: f3 0f 10 74 24 08            	movss	xmm6, dword ptr [rsp + 0x8]
 2001767: f3 0f 10 64 24 1c            	movss	xmm4, dword ptr [rsp + 0x1c]
 200176d: c7 43 0c 00 00 00 00         	mov	dword ptr [rbx + 0xc], 0x0
 2001774: f3 0f 5e c8                  	divss	xmm1, xmm0
 2001778: f3 0f 10 54 24 18            	movss	xmm2, dword ptr [rsp + 0x18]
 200177e: f3 44 0f 10 05 19 29 00 00   	movss	xmm8, dword ptr [rip + 0x2919] # 0x20040a0 <gfx_present+0x13b>
 2001787: c7 43 1c 00 00 00 00         	mov	dword ptr [rbx + 0x1c], 0x0
 200178e: 48 c7 43 2c 00 00 00 00      	mov	qword ptr [rbx + 0x2c], 0x0
 2001796: 41 0f 28 e8                  	movaps	xmm5, xmm8
 200179a: 44 0f 28 da                  	movaps	xmm11, xmm2
 200179e: 44 0f 28 d2                  	movaps	xmm10, xmm2
 20017a2: 48 c7 43 34 00 00 00 00      	mov	qword ptr [rbx + 0x34], 0x0
 20017aa: f3 0f 5c ec                  	subss	xmm5, xmm4
 20017ae: f3 44 0f 11 43 3c            	movss	dword ptr [rbx + 0x3c], xmm8
 20017b4: 44 0f 28 cd                  	movaps	xmm9, xmm5
 20017b8: 0f 28 fd                     	movaps	xmm7, xmm5
 20017bb: f3 0f 5e d8                  	divss	xmm3, xmm0
 20017bf: f3 44 0f 59 c9               	mulss	xmm9, xmm1
 20017c4: f3 0f 59 d1                  	mulss	xmm2, xmm1
 20017c8: f3 0f 5e f0                  	divss	xmm6, xmm0
 20017cc: 0f 28 c2                     	movaps	xmm0, xmm2
 20017cf: 41 0f 28 d1                  	movaps	xmm2, xmm9
 20017d3: f3 0f 59 d1                  	mulss	xmm2, xmm1
 20017d7: f3 0f 59 fb                  	mulss	xmm7, xmm3
 20017db: f3 44 0f 59 d3               	mulss	xmm10, xmm3
 20017e0: f3 0f 58 d4                  	addss	xmm2, xmm4
 20017e4: f3 0f 11 13                  	movss	dword ptr [rbx], xmm2
 20017e8: 0f 28 d7                     	movaps	xmm2, xmm7
 20017eb: f3 0f 59 d1                  	mulss	xmm2, xmm1
 20017ef: f3 0f 59 ee                  	mulss	xmm5, xmm6
 20017f3: f3 44 0f 59 de               	mulss	xmm11, xmm6
 20017f8: f3 0f 59 cd                  	mulss	xmm1, xmm5
 20017fc: f3 41 0f 5c d3               	subss	xmm2, xmm11
 2001801: f3 0f 11 53 04               	movss	dword ptr [rbx + 0x4], xmm2
 2001806: f3 41 0f 58 ca               	addss	xmm1, xmm10
 200180b: f3 0f 11 4b 08               	movss	dword ptr [rbx + 0x8], xmm1
 2001810: 41 0f 28 c9                  	movaps	xmm1, xmm9
 2001814: f3 0f 59 cb                  	mulss	xmm1, xmm3
 2001818: f3 44 0f 59 ce               	mulss	xmm9, xmm6
 200181d: f3 41 0f 58 cb               	addss	xmm1, xmm11
 2001822: f3 45 0f 5c ca               	subss	xmm9, xmm10
 2001827: f3 0f 11 4b 10               	movss	dword ptr [rbx + 0x10], xmm1
 200182c: 0f 28 cf                     	movaps	xmm1, xmm7
 200182f: f3 0f 59 cb                  	mulss	xmm1, xmm3
 2001833: f3 44 0f 11 4b 20            	movss	dword ptr [rbx + 0x20], xmm9
 2001839: f3 0f 59 dd                  	mulss	xmm3, xmm5
 200183d: f3 0f 59 fe                  	mulss	xmm7, xmm6
 2001841: f3 0f 59 ee                  	mulss	xmm5, xmm6
 2001845: f3 0f 58 cc                  	addss	xmm1, xmm4
 2001849: f3 0f 5c d8                  	subss	xmm3, xmm0
 200184d: f3 0f 58 f8                  	addss	xmm7, xmm0
 2001851: f3 0f 58 ec                  	addss	xmm5, xmm4
 2001855: f3 0f 11 4b 14               	movss	dword ptr [rbx + 0x14], xmm1
 200185a: f3 0f 11 5b 18               	movss	dword ptr [rbx + 0x18], xmm3
 200185f: f3 0f 11 7b 24               	movss	dword ptr [rbx + 0x24], xmm7
 2001864: f3 0f 11 6b 28               	movss	dword ptr [rbx + 0x28], xmm5
 2001869: 48 83 c4 30                  	add	rsp, 0x30
 200186d: 5b                           	pop	rbx
 200186e: c3                           	ret
 200186f: 90                           	nop

0000000002001870 <mat_rotationX>:
 2001870: 48 83 ec 08                  	sub	rsp, 0x8
 2001874: dd 05 66 28 00 00            	fld	qword ptr [rip + 0x2866] # 0x20040e0 <gfx_present+0x17b>
 200187a: 48 89 f8                     	mov	rax, rdi
 200187d: 0f 28 d0                     	movaps	xmm2, xmm0
 2001880: f3 0f 11 04 24               	movss	dword ptr [rsp], xmm0
 2001885: d9 04 24                     	fld	dword ptr [rsp]
 2001888: de c1                        	faddp	st(1), st
 200188a: dd 1c 24                     	fstp	qword ptr [rsp]
 200188d: dd 04 24                     	fld	qword ptr [rsp]
 2001890: d9 1c 24                     	fstp	dword ptr [rsp]
 2001893: dd 05 4f 28 00 00            	fld	qword ptr [rip + 0x284f] # 0x20040e8 <gfx_present+0x183>
 2001899: d9 04 24                     	fld	dword ptr [rsp]
 200189c: f3 0f 10 1c 24               	movss	xmm3, dword ptr [rsp]
 20018a1: db f1                        	fcomi	st, st(1)
 20018a3: dd d9                        	fstp	st(1)
 20018a5: 76 19                        	jbe	0x20018c0 <mat_rotationX+0x50>
 20018a7: dc 25 43 28 00 00            	fsub	qword ptr [rip + 0x2843] # 0x20040f0 <gfx_present+0x18b>
 20018ad: dd 1c 24                     	fstp	qword ptr [rsp]
 20018b0: dd 04 24                     	fld	qword ptr [rsp]
 20018b3: d9 1c 24                     	fstp	dword ptr [rsp]
 20018b6: f3 0f 10 1c 24               	movss	xmm3, dword ptr [rsp]
 20018bb: eb 05                        	jmp	0x20018c2 <mat_rotationX+0x52>
 20018bd: 0f 1f 00                     	nop	dword ptr [rax]
 20018c0: dd d8                        	fstp	st(0)
 20018c2: 0f 57 e4                     	xorps	xmm4, xmm4
 20018c5: f3 0f 10 2d ab 27 00 00      	movss	xmm5, dword ptr [rip + 0x27ab] # 0x2004078 <gfx_present+0x113>
 20018cd: 0f 28 f3                     	movaps	xmm6, xmm3
 20018d0: 0f 28 cb                     	movaps	xmm1, xmm3
 20018d3: 0f 2f dc                     	comiss	xmm3, xmm4
 20018d6: f3 0f 10 05 9e 27 00 00      	movss	xmm0, dword ptr [rip + 0x279e] # 0x200407c <gfx_present+0x117>
 20018de: f3 0f 10 25 aa 27 00 00      	movss	xmm4, dword ptr [rip + 0x27aa] # 0x2004090 <gfx_present+0x12b>
 20018e6: f3 0f 59 f5                  	mulss	xmm6, xmm5
 20018ea: f3 0f 59 c8                  	mulss	xmm1, xmm0
 20018ee: 77 03                        	ja	0x20018f3 <mat_rotationX+0x83>
 20018f0: 0f 57 dc                     	xorps	xmm3, xmm4
 20018f3: f3 0f 59 cb                  	mulss	xmm1, xmm3
 20018f7: f3 0f 58 ce                  	addss	xmm1, xmm6
 20018fb: 0f 57 f6                     	xorps	xmm6, xmm6
 20018fe: 0f 2f ce                     	comiss	xmm1, xmm6
 2001901: 0f 28 d9                     	movaps	xmm3, xmm1
 2001904: 77 03                        	ja	0x2001909 <mat_rotationX+0x99>
 2001906: 0f 57 dc                     	xorps	xmm3, xmm4
 2001909: f3 0f 59 d9                  	mulss	xmm3, xmm1
 200190d: f3 0f 10 35 6b 27 00 00      	movss	xmm6, dword ptr [rip + 0x276b] # 0x2004080 <gfx_present+0x11b>
 2001915: f3 0f 59 ea                  	mulss	xmm5, xmm2
 2001919: f3 0f 59 c2                  	mulss	xmm0, xmm2
 200191d: f3 0f 5c d9                  	subss	xmm3, xmm1
 2001921: f3 0f 59 de                  	mulss	xmm3, xmm6
 2001925: f3 0f 58 cb                  	addss	xmm1, xmm3
 2001929: 0f 57 db                     	xorps	xmm3, xmm3
 200192c: 0f 2f d3                     	comiss	xmm2, xmm3
 200192f: 77 03                        	ja	0x2001934 <mat_rotationX+0xc4>
 2001931: 0f 57 d4                     	xorps	xmm2, xmm4
 2001934: f3 0f 59 c2                  	mulss	xmm0, xmm2
 2001938: 0f 57 db                     	xorps	xmm3, xmm3
 200193b: f3 0f 58 c5                  	addss	xmm0, xmm5
 200193f: 0f 2f c3                     	comiss	xmm0, xmm3
 2001942: 0f 28 d0                     	movaps	xmm2, xmm0
 2001945: 77 03                        	ja	0x200194a <mat_rotationX+0xda>
 2001947: 0f 57 d4                     	xorps	xmm2, xmm4
 200194a: f3 0f 59 d0                  	mulss	xmm2, xmm0
 200194e: c7 40 10 00 00 00 00         	mov	dword ptr [rax + 0x10], 0x0
 2001955: 48 c7 40 1c 00 00 00 00      	mov	qword ptr [rax + 0x1c], 0x0
 200195d: 48 c7 40 2c 00 00 00 00      	mov	qword ptr [rax + 0x2c], 0x0
 2001965: 48 c7 40 34 00 00 00 00      	mov	qword ptr [rax + 0x34], 0x0
 200196d: c7 40 3c 00 00 80 3f         	mov	dword ptr [rax + 0x3c], 0x3f800000
 2001974: f3 0f 5c d0                  	subss	xmm2, xmm0
 2001978: f3 0f 11 48 14               	movss	dword ptr [rax + 0x14], xmm1
 200197d: f3 0f 11 48 28               	movss	dword ptr [rax + 0x28], xmm1
 2001982: f3 0f 59 d6                  	mulss	xmm2, xmm6
 2001986: f3 0f 58 c2                  	addss	xmm0, xmm2
 200198a: f3 0f 10 15 0e 27 00 00      	movss	xmm2, dword ptr [rip + 0x270e] # 0x20040a0 <gfx_present+0x13b>
 2001992: 0f 11 10                     	movups	xmmword ptr [rax], xmm2
 2001995: 0f 57 e0                     	xorps	xmm4, xmm0
 2001998: f3 0f 11 40 24               	movss	dword ptr [rax + 0x24], xmm0
 200199d: f3 0f 11 60 18               	movss	dword ptr [rax + 0x18], xmm4
 20019a2: 48 83 c4 08                  	add	rsp, 0x8
 20019a6: c3                           	ret
 20019a7: 66 0f 1f 84 00 00 00 00 00   	nop	word ptr [rax + rax]

00000000020019b0 <mat_rotationY>:
 20019b0: 48 83 ec 08                  	sub	rsp, 0x8
 20019b4: dd 05 26 27 00 00            	fld	qword ptr [rip + 0x2726] # 0x20040e0 <gfx_present+0x17b>
 20019ba: 48 89 f8                     	mov	rax, rdi
 20019bd: 0f 28 d8                     	movaps	xmm3, xmm0
 20019c0: f3 0f 11 04 24               	movss	dword ptr [rsp], xmm0
 20019c5: d9 04 24                     	fld	dword ptr [rsp]
 20019c8: de c1                        	faddp	st(1), st
 20019ca: dd 1c 24                     	fstp	qword ptr [rsp]
 20019cd: dd 04 24                     	fld	qword ptr [rsp]
 20019d0: d9 1c 24                     	fstp	dword ptr [rsp]
 20019d3: dd 05 0f 27 00 00            	fld	qword ptr [rip + 0x270f] # 0x20040e8 <gfx_present+0x183>
 20019d9: d9 04 24                     	fld	dword ptr [rsp]
 20019dc: f3 0f 10 14 24               	movss	xmm2, dword ptr [rsp]
 20019e1: db f1                        	fcomi	st, st(1)
 20019e3: dd d9                        	fstp	st(1)
 20019e5: 76 19                        	jbe	0x2001a00 <mat_rotationY+0x50>
 20019e7: dc 25 03 27 00 00            	fsub	qword ptr [rip + 0x2703] # 0x20040f0 <gfx_present+0x18b>
 20019ed: dd 1c 24                     	fstp	qword ptr [rsp]
 20019f0: dd 04 24                     	fld	qword ptr [rsp]
 20019f3: d9 1c 24                     	fstp	dword ptr [rsp]
 20019f6: f3 0f 10 14 24               	movss	xmm2, dword ptr [rsp]
 20019fb: eb 05                        	jmp	0x2001a02 <mat_rotationY+0x52>
 20019fd: 0f 1f 00                     	nop	dword ptr [rax]
 2001a00: dd d8                        	fstp	st(0)
 2001a02: 0f 57 e4                     	xorps	xmm4, xmm4
 2001a05: f3 0f 10 2d 6b 26 00 00      	movss	xmm5, dword ptr [rip + 0x266b] # 0x2004078 <gfx_present+0x113>
 2001a0d: 0f 28 f2                     	movaps	xmm6, xmm2
 2001a10: 0f 28 c2                     	movaps	xmm0, xmm2
 2001a13: 0f 2f d4                     	comiss	xmm2, xmm4
 2001a16: f3 0f 10 0d 5e 26 00 00      	movss	xmm1, dword ptr [rip + 0x265e] # 0x200407c <gfx_present+0x117>
 2001a1e: f3 0f 10 25 6a 26 00 00      	movss	xmm4, dword ptr [rip + 0x266a] # 0x2004090 <gfx_present+0x12b>
 2001a26: f3 0f 59 f5                  	mulss	xmm6, xmm5
 2001a2a: f3 0f 59 c1                  	mulss	xmm0, xmm1
 2001a2e: 77 03                        	ja	0x2001a33 <mat_rotationY+0x83>
 2001a30: 0f 57 d4                     	xorps	xmm2, xmm4
 2001a33: f3 0f 59 c2                  	mulss	xmm0, xmm2
 2001a37: f3 0f 58 c6                  	addss	xmm0, xmm6
 2001a3b: 0f 57 f6                     	xorps	xmm6, xmm6
 2001a3e: 0f 2f c6                     	comiss	xmm0, xmm6
 2001a41: 0f 28 d0                     	movaps	xmm2, xmm0
 2001a44: 77 03                        	ja	0x2001a49 <mat_rotationY+0x99>
 2001a46: 0f 57 d4                     	xorps	xmm2, xmm4
 2001a49: f3 0f 59 d0                  	mulss	xmm2, xmm0
 2001a4d: f3 0f 10 35 2b 26 00 00      	movss	xmm6, dword ptr [rip + 0x262b] # 0x2004080 <gfx_present+0x11b>
 2001a55: f3 0f 59 cb                  	mulss	xmm1, xmm3
 2001a59: f3 0f 59 eb                  	mulss	xmm5, xmm3
 2001a5d: f3 0f 5c d0                  	subss	xmm2, xmm0
 2001a61: f3 0f 59 d6                  	mulss	xmm2, xmm6
 2001a65: f3 0f 58 d0                  	addss	xmm2, xmm0
 2001a69: 0f 28 c1                     	movaps	xmm0, xmm1
 2001a6c: 0f 57 c9                     	xorps	xmm1, xmm1
 2001a6f: 0f 2f d9                     	comiss	xmm3, xmm1
 2001a72: 77 03                        	ja	0x2001a77 <mat_rotationY+0xc7>
 2001a74: 0f 57 dc                     	xorps	xmm3, xmm4
 2001a77: f3 0f 59 c3                  	mulss	xmm0, xmm3
 2001a7b: 0f 57 db                     	xorps	xmm3, xmm3
 2001a7e: f3 0f 58 c5                  	addss	xmm0, xmm5
 2001a82: 0f 2f c3                     	comiss	xmm0, xmm3
 2001a85: 0f 28 c8                     	movaps	xmm1, xmm0
 2001a88: 77 03                        	ja	0x2001a8d <mat_rotationY+0xdd>
 2001a8a: 0f 57 cc                     	xorps	xmm1, xmm4
 2001a8d: f3 0f 59 c8                  	mulss	xmm1, xmm0
 2001a91: c7 40 04 00 00 00 00         	mov	dword ptr [rax + 0x4], 0x0
 2001a98: 48 c7 40 0c 00 00 00 00      	mov	qword ptr [rax + 0xc], 0x0
 2001aa0: 48 c7 40 14 00 00 80 3f      	mov	qword ptr [rax + 0x14], 0x3f800000
 2001aa8: c7 40 1c 00 00 00 00         	mov	dword ptr [rax + 0x1c], 0x0
 2001aaf: c7 40 24 00 00 00 00         	mov	dword ptr [rax + 0x24], 0x0
 2001ab6: f3 0f 5c c8                  	subss	xmm1, xmm0
 2001aba: 48 c7 40 2c 00 00 00 00      	mov	qword ptr [rax + 0x2c], 0x0
 2001ac2: 48 c7 40 34 00 00 00 00      	mov	qword ptr [rax + 0x34], 0x0
 2001aca: c7 40 3c 00 00 80 3f         	mov	dword ptr [rax + 0x3c], 0x3f800000
 2001ad1: f3 0f 59 ce                  	mulss	xmm1, xmm6
 2001ad5: f3 0f 11 10                  	movss	dword ptr [rax], xmm2
 2001ad9: f3 0f 11 50 28               	movss	dword ptr [rax + 0x28], xmm2
 2001ade: f3 0f 58 c1                  	addss	xmm0, xmm1
 2001ae2: f3 0f 11 40 08               	movss	dword ptr [rax + 0x8], xmm0
 2001ae7: 0f 57 c4                     	xorps	xmm0, xmm4
 2001aea: f3 0f 11 40 20               	movss	dword ptr [rax + 0x20], xmm0
 2001aef: 48 83 c4 08                  	add	rsp, 0x8
 2001af3: c3                           	ret
 2001af4: 66 66 2e 0f 1f 84 00 00 00 00 00     	nop	word ptr cs:[rax + rax]
 2001aff: 90                           	nop

0000000002001b00 <mat_rotationZ>:
 2001b00: 48 83 ec 08                  	sub	rsp, 0x8
 2001b04: dd 05 d6 25 00 00            	fld	qword ptr [rip + 0x25d6] # 0x20040e0 <gfx_present+0x17b>
 2001b0a: 48 89 f8                     	mov	rax, rdi
 2001b0d: 0f 28 d0                     	movaps	xmm2, xmm0
 2001b10: f3 0f 11 04 24               	movss	dword ptr [rsp], xmm0
 2001b15: d9 04 24                     	fld	dword ptr [rsp]
 2001b18: de c1                        	faddp	st(1), st
 2001b1a: dd 1c 24                     	fstp	qword ptr [rsp]
 2001b1d: dd 04 24                     	fld	qword ptr [rsp]
 2001b20: d9 1c 24                     	fstp	dword ptr [rsp]
 2001b23: dd 05 bf 25 00 00            	fld	qword ptr [rip + 0x25bf] # 0x20040e8 <gfx_present+0x183>
 2001b29: d9 04 24                     	fld	dword ptr [rsp]
 2001b2c: f3 0f 10 1c 24               	movss	xmm3, dword ptr [rsp]
 2001b31: db f1                        	fcomi	st, st(1)
 2001b33: dd d9                        	fstp	st(1)
 2001b35: 76 19                        	jbe	0x2001b50 <mat_rotationZ+0x50>
 2001b37: dc 25 b3 25 00 00            	fsub	qword ptr [rip + 0x25b3] # 0x20040f0 <gfx_present+0x18b>
 2001b3d: dd 1c 24                     	fstp	qword ptr [rsp]
 2001b40: dd 04 24                     	fld	qword ptr [rsp]
 2001b43: d9 1c 24                     	fstp	dword ptr [rsp]
 2001b46: f3 0f 10 1c 24               	movss	xmm3, dword ptr [rsp]
 2001b4b: eb 05                        	jmp	0x2001b52 <mat_rotationZ+0x52>
 2001b4d: 0f 1f 00                     	nop	dword ptr [rax]
 2001b50: dd d8                        	fstp	st(0)
 2001b52: 0f 57 e4                     	xorps	xmm4, xmm4
 2001b55: f3 0f 10 2d 1b 25 00 00      	movss	xmm5, dword ptr [rip + 0x251b] # 0x2004078 <gfx_present+0x113>
 2001b5d: 0f 28 f3                     	movaps	xmm6, xmm3
 2001b60: 0f 28 cb                     	movaps	xmm1, xmm3
 2001b63: 0f 2f dc                     	comiss	xmm3, xmm4
 2001b66: f3 0f 10 05 0e 25 00 00      	movss	xmm0, dword ptr [rip + 0x250e] # 0x200407c <gfx_present+0x117>
 2001b6e: f3 0f 10 25 1a 25 00 00      	movss	xmm4, dword ptr [rip + 0x251a] # 0x2004090 <gfx_present+0x12b>
 2001b76: f3 0f 59 f5                  	mulss	xmm6, xmm5
 2001b7a: f3 0f 59 c8                  	mulss	xmm1, xmm0
 2001b7e: 77 03                        	ja	0x2001b83 <mat_rotationZ+0x83>
 2001b80: 0f 57 dc                     	xorps	xmm3, xmm4
 2001b83: f3 0f 59 cb                  	mulss	xmm1, xmm3
 2001b87: f3 0f 58 ce                  	addss	xmm1, xmm6
 2001b8b: 0f 57 f6                     	xorps	xmm6, xmm6
 2001b8e: 0f 2f ce                     	comiss	xmm1, xmm6
 2001b91: 0f 28 d9                     	movaps	xmm3, xmm1
 2001b94: 77 03                        	ja	0x2001b99 <mat_rotationZ+0x99>
 2001b96: 0f 57 dc                     	xorps	xmm3, xmm4
 2001b99: f3 0f 59 d9                  	mulss	xmm3, xmm1
 2001b9d: f3 0f 10 35 db 24 00 00      	movss	xmm6, dword ptr [rip + 0x24db] # 0x2004080 <gfx_present+0x11b>
 2001ba5: f3 0f 59 ea                  	mulss	xmm5, xmm2
 2001ba9: f3 0f 59 c2                  	mulss	xmm0, xmm2
 2001bad: f3 0f 5c d9                  	subss	xmm3, xmm1
 2001bb1: f3 0f 59 de                  	mulss	xmm3, xmm6
 2001bb5: f3 0f 58 cb                  	addss	xmm1, xmm3
 2001bb9: 0f 57 db                     	xorps	xmm3, xmm3
 2001bbc: 0f 2f d3                     	comiss	xmm2, xmm3
 2001bbf: 77 03                        	ja	0x2001bc4 <mat_rotationZ+0xc4>
 2001bc1: 0f 57 d4                     	xorps	xmm2, xmm4
 2001bc4: f3 0f 59 c2                  	mulss	xmm0, xmm2
 2001bc8: 0f 57 db                     	xorps	xmm3, xmm3
 2001bcb: f3 0f 58 c5                  	addss	xmm0, xmm5
 2001bcf: 0f 2f c3                     	comiss	xmm0, xmm3
 2001bd2: 0f 28 d0                     	movaps	xmm2, xmm0
 2001bd5: 77 03                        	ja	0x2001bda <mat_rotationZ+0xda>
 2001bd7: 0f 57 d4                     	xorps	xmm2, xmm4
 2001bda: f3 0f 59 d0                  	mulss	xmm2, xmm0
 2001bde: c7 40 04 00 00 00 00         	mov	dword ptr [rax + 0x4], 0x0
 2001be5: 48 ba 00 00 00 00 00 00 80 3f	movabs	rdx, 0x3f80000000000000
 2001bef: 48 c7 40 0c 00 00 00 00      	mov	qword ptr [rax + 0xc], 0x0
 2001bf7: 48 c7 40 1c 00 00 00 00      	mov	qword ptr [rax + 0x1c], 0x0
 2001bff: 48 89 50 24                  	mov	qword ptr [rax + 0x24], rdx
 2001c03: 48 c7 40 2c 00 00 00 00      	mov	qword ptr [rax + 0x2c], 0x0
 2001c0b: f3 0f 5c d0                  	subss	xmm2, xmm0
 2001c0f: 48 c7 40 34 00 00 00 00      	mov	qword ptr [rax + 0x34], 0x0
 2001c17: c7 40 3c 00 00 80 3f         	mov	dword ptr [rax + 0x3c], 0x3f800000
 2001c1e: f3 0f 11 08                  	movss	dword ptr [rax], xmm1
 2001c22: f3 0f 59 d6                  	mulss	xmm2, xmm6
 2001c26: f3 0f 11 48 18               	movss	dword ptr [rax + 0x18], xmm1
 2001c2b: f3 0f 58 c2                  	addss	xmm0, xmm2
 2001c2f: 0f 57 e0                     	xorps	xmm4, xmm0
 2001c32: f3 0f 11 40 14               	movss	dword ptr [rax + 0x14], xmm0
 2001c37: f3 0f 11 60 08               	movss	dword ptr [rax + 0x8], xmm4
 2001c3c: 48 83 c4 08                  	add	rsp, 0x8
 2001c40: c3                           	ret
 2001c41: 66 66 2e 0f 1f 84 00 00 00 00 00     	nop	word ptr cs:[rax + rax]
 2001c4c: 0f 1f 40 00                  	nop	dword ptr [rax]

0000000002001c50 <mat_scale>:
 2001c50: 48 c7 47 04 00 00 00 00      	mov	qword ptr [rdi + 0x4], 0x0
 2001c58: 48 89 f8                     	mov	rax, rdi
 2001c5b: 48 c7 47 0c 00 00 00 00      	mov	qword ptr [rdi + 0xc], 0x0
 2001c63: 48 c7 47 18 00 00 00 00      	mov	qword ptr [rdi + 0x18], 0x0
 2001c6b: 48 c7 47 20 00 00 00 00      	mov	qword ptr [rdi + 0x20], 0x0
 2001c73: 48 c7 47 2c 00 00 00 00      	mov	qword ptr [rdi + 0x2c], 0x0
 2001c7b: 48 c7 47 34 00 00 00 00      	mov	qword ptr [rdi + 0x34], 0x0
 2001c83: c7 47 3c 00 00 80 3f         	mov	dword ptr [rdi + 0x3c], 0x3f800000
 2001c8a: f3 0f 11 07                  	movss	dword ptr [rdi], xmm0
 2001c8e: f3 0f 11 4f 14               	movss	dword ptr [rdi + 0x14], xmm1
 2001c93: f3 0f 11 57 28               	movss	dword ptr [rdi + 0x28], xmm2
 2001c98: c3                           	ret
 2001c99: 0f 1f 80 00 00 00 00         	nop	dword ptr [rax]

0000000002001ca0 <mat_lookat>:
 2001ca0: 53                           	push	rbx
 2001ca1: 0f 28 f9                     	movaps	xmm7, xmm1
 2001ca4: 48 89 fb                     	mov	rbx, rdi
 2001ca7: 48 83 ec 60                  	sub	rsp, 0x60
 2001cab: 0f 13 44 24 50               	movlps	qword ptr [rsp + 0x50], xmm0
 2001cb0: f3 0f 10 4c 24 50            	movss	xmm1, dword ptr [rsp + 0x50]
 2001cb6: f3 44 0f 10 54 24 54         	movss	xmm10, dword ptr [rsp + 0x54]
 2001cbd: 0f 13 54 24 40               	movlps	qword ptr [rsp + 0x40], xmm2
 2001cc2: f3 0f 11 6c 24 38            	movss	dword ptr [rsp + 0x38], xmm5
 2001cc8: 0f 28 d1                     	movaps	xmm2, xmm1
 2001ccb: 41 0f 28 ea                  	movaps	xmm5, xmm10
 2001ccf: f3 0f 5c 54 24 40            	subss	xmm2, dword ptr [rsp + 0x40]
 2001cd5: f3 0f 5c 6c 24 44            	subss	xmm5, dword ptr [rsp + 0x44]
 2001cdb: 0f 13 64 24 30               	movlps	qword ptr [rsp + 0x30], xmm4
 2001ce0: 0f 28 e7                     	movaps	xmm4, xmm7
 2001ce3: f3 0f 5c e3                  	subss	xmm4, xmm3
 2001ce7: f3 0f 11 4c 24 24            	movss	dword ptr [rsp + 0x24], xmm1
 2001ced: 0f 28 c2                     	movaps	xmm0, xmm2
 2001cf0: f3 44 0f 11 54 24 20         	movss	dword ptr [rsp + 0x20], xmm10
 2001cf7: f3 0f 59 c2                  	mulss	xmm0, xmm2
 2001cfb: 0f 28 dd                     	movaps	xmm3, xmm5
 2001cfe: f3 0f 11 7c 24 1c            	movss	dword ptr [rsp + 0x1c], xmm7
 2001d04: f3 0f 59 dd                  	mulss	xmm3, xmm5
 2001d08: f3 0f 11 54 24 18            	movss	dword ptr [rsp + 0x18], xmm2
 2001d0e: f3 0f 11 6c 24 14            	movss	dword ptr [rsp + 0x14], xmm5
 2001d14: f3 0f 11 64 24 10            	movss	dword ptr [rsp + 0x10], xmm4
 2001d1a: f3 0f 58 c3                  	addss	xmm0, xmm3
 2001d1e: 0f 28 dc                     	movaps	xmm3, xmm4
 2001d21: f3 0f 59 dc                  	mulss	xmm3, xmm4
 2001d25: f3 0f 58 c3                  	addss	xmm0, xmm3
 2001d29: f3 0f 11 44 24 0c            	movss	dword ptr [rsp + 0xc], xmm0
 2001d2f: e8 4c 21 00 00               	call	0x2003e80 <sqrt>
 2001d34: f3 0f 10 1d 4c 23 00 00      	movss	xmm3, dword ptr [rip + 0x234c] # 0x2004088 <gfx_present+0x123>
 2001d3c: 0f 2f d8                     	comiss	xmm3, xmm0
 2001d3f: 76 3f                        	jbe	0x2001d80 <mat_lookat+0xe0>
 2001d41: 0f 28 15 68 23 00 00         	movaps	xmm2, xmmword ptr [rip + 0x2368] # 0x20040b0 <gfx_present+0x14b>
 2001d48: 0f 28 35 71 23 00 00         	movaps	xmm6, xmmword ptr [rip + 0x2371] # 0x20040c0 <gfx_present+0x15b>
 2001d4f: f3 44 0f 10 05 48 23 00 00   	movss	xmm8, dword ptr [rip + 0x2348] # 0x20040a0 <gfx_present+0x13b>
 2001d58: 0f 28 05 71 23 00 00         	movaps	xmm0, xmmword ptr [rip + 0x2371] # 0x20040d0 <gfx_present+0x16b>
 2001d5f: 44 0f 11 03                  	movups	xmmword ptr [rbx], xmm8
 2001d63: 48 89 d8                     	mov	rax, rbx
 2001d66: 0f 11 73 10                  	movups	xmmword ptr [rbx + 0x10], xmm6
 2001d6a: 0f 11 53 20                  	movups	xmmword ptr [rbx + 0x20], xmm2
 2001d6e: 0f 11 43 30                  	movups	xmmword ptr [rbx + 0x30], xmm0
 2001d72: 48 83 c4 60                  	add	rsp, 0x60
 2001d76: 5b                           	pop	rbx
 2001d77: c3                           	ret
 2001d78: 0f 1f 84 00 00 00 00 00      	nop	dword ptr [rax + rax]
 2001d80: f3 0f 10 44 24 0c            	movss	xmm0, dword ptr [rsp + 0xc]
 2001d86: e8 f5 20 00 00               	call	0x2003e80 <sqrt>
 2001d8b: f3 0f 10 64 24 10            	movss	xmm4, dword ptr [rsp + 0x10]
 2001d91: f3 0f 10 6c 24 14            	movss	xmm5, dword ptr [rsp + 0x14]
 2001d97: f3 0f 10 54 24 18            	movss	xmm2, dword ptr [rsp + 0x18]
 2001d9d: f3 0f 10 74 24 38            	movss	xmm6, dword ptr [rsp + 0x38]
 2001da3: f3 0f 5e e8                  	divss	xmm5, xmm0
 2001da7: 0f 28 dc                     	movaps	xmm3, xmm4
 2001daa: f3 0f 10 64 24 30            	movss	xmm4, dword ptr [rsp + 0x30]
 2001db0: 44 0f 28 ce                  	movaps	xmm9, xmm6
 2001db4: f3 0f 5e d8                  	divss	xmm3, xmm0
 2001db8: f3 44 0f 59 cd               	mulss	xmm9, xmm5
 2001dbd: f3 0f 11 6c 24 28            	movss	dword ptr [rsp + 0x28], xmm5
 2001dc3: f3 0f 5e d0                  	divss	xmm2, xmm0
 2001dc7: f3 0f 10 44 24 34            	movss	xmm0, dword ptr [rsp + 0x34]
 2001dcd: 44 0f 28 c0                  	movaps	xmm8, xmm0
 2001dd1: f3 44 0f 59 c3               	mulss	xmm8, xmm3
 2001dd6: f3 0f 11 5c 24 2c            	movss	dword ptr [rsp + 0x2c], xmm3
 2001ddc: f3 45 0f 5c c1               	subss	xmm8, xmm9
 2001de1: 44 0f 28 cc                  	movaps	xmm9, xmm4
 2001de5: f3 44 0f 59 cb               	mulss	xmm9, xmm3
 2001dea: f3 0f 59 e5                  	mulss	xmm4, xmm5
 2001dee: f3 44 0f 11 44 24 14         	movss	dword ptr [rsp + 0x14], xmm8
 2001df5: f3 0f 59 f2                  	mulss	xmm6, xmm2
 2001df9: f3 0f 11 54 24 18            	movss	dword ptr [rsp + 0x18], xmm2
 2001dff: f3 0f 59 c2                  	mulss	xmm0, xmm2
 2001e03: f3 41 0f 5c f1               	subss	xmm6, xmm9
 2001e08: f3 0f 5c e0                  	subss	xmm4, xmm0
 2001e0c: 41 0f 28 c0                  	movaps	xmm0, xmm8
 2001e10: f3 41 0f 59 c0               	mulss	xmm0, xmm8
 2001e15: 44 0f 28 ce                  	movaps	xmm9, xmm6
 2001e19: f3 0f 11 74 24 10            	movss	dword ptr [rsp + 0x10], xmm6
 2001e1f: f3 44 0f 59 ce               	mulss	xmm9, xmm6
 2001e24: f3 0f 11 64 24 0c            	movss	dword ptr [rsp + 0xc], xmm4
 2001e2a: f3 41 0f 58 c1               	addss	xmm0, xmm9
 2001e2f: 44 0f 28 cc                  	movaps	xmm9, xmm4
 2001e33: f3 44 0f 59 cc               	mulss	xmm9, xmm4
 2001e38: f3 41 0f 58 c1               	addss	xmm0, xmm9
 2001e3d: e8 3e 20 00 00               	call	0x2003e80 <sqrt>
 2001e42: f3 0f 10 74 24 10            	movss	xmm6, dword ptr [rsp + 0x10]
 2001e48: f3 0f 10 64 24 0c            	movss	xmm4, dword ptr [rsp + 0xc]
 2001e4e: f3 44 0f 10 44 24 14         	movss	xmm8, dword ptr [rsp + 0x14]
 2001e55: f3 0f 10 6c 24 28            	movss	xmm5, dword ptr [rsp + 0x28]
 2001e5b: f3 0f 5e f0                  	divss	xmm6, xmm0
 2001e5f: f3 0f 10 5c 24 2c            	movss	xmm3, dword ptr [rsp + 0x2c]
 2001e65: f3 0f 10 54 24 18            	movss	xmm2, dword ptr [rsp + 0x18]
 2001e6b: f3 0f 10 4c 24 24            	movss	xmm1, dword ptr [rsp + 0x24]
 2001e71: f3 44 0f 10 54 24 20         	movss	xmm10, dword ptr [rsp + 0x20]
 2001e78: f3 0f 10 7c 24 1c            	movss	xmm7, dword ptr [rsp + 0x1c]
 2001e7e: 45 0f 28 ca                  	movaps	xmm9, xmm10
 2001e82: f3 0f 5e e0                  	divss	xmm4, xmm0
 2001e86: f3 44 0f 59 ce               	mulss	xmm9, xmm6
 2001e8b: 44 0f 28 de                  	movaps	xmm11, xmm6
 2001e8f: f3 44 0f 59 da               	mulss	xmm11, xmm2
 2001e94: f3 44 0f 5e c0               	divss	xmm8, xmm0
 2001e99: 0f 28 c6                     	movaps	xmm0, xmm6
 2001e9c: f3 0f 59 c3                  	mulss	xmm0, xmm3
 2001ea0: 44 0f 28 e4                  	movaps	xmm12, xmm4
 2001ea4: f3 44 0f 59 e5               	mulss	xmm12, xmm5
 2001ea9: f3 44 0f 5c e0               	subss	xmm12, xmm0
 2001eae: 0f 28 c4                     	movaps	xmm0, xmm4
 2001eb1: f3 0f 59 c2                  	mulss	xmm0, xmm2
 2001eb5: 45 0f 28 e8                  	movaps	xmm13, xmm8
 2001eb9: f3 44 0f 59 eb               	mulss	xmm13, xmm3
 2001ebe: f3 44 0f 5c e8               	subss	xmm13, xmm0
 2001ec3: 41 0f 28 c0                  	movaps	xmm0, xmm8
 2001ec7: f3 0f 59 c5                  	mulss	xmm0, xmm5
 2001ecb: f3 44 0f 5c d8               	subss	xmm11, xmm0
 2001ed0: 0f 28 c1                     	movaps	xmm0, xmm1
 2001ed3: f3 41 0f 59 c0               	mulss	xmm0, xmm8
 2001ed8: 44 0f 14 c6                  	unpcklps	xmm8, xmm6              # xmm8 = xmm8[0],xmm6[0],xmm8[1],xmm6[1]
 2001edc: 41 0f 28 f4                  	movaps	xmm6, xmm12
 2001ee0: 41 0f 14 f5                  	unpcklps	xmm6, xmm13             # xmm6 = xmm6[0],xmm13[0],xmm6[1],xmm13[1]
 2001ee4: f3 41 0f 58 c1               	addss	xmm0, xmm9
 2001ee9: 44 0f 28 cf                  	movaps	xmm9, xmm7
 2001eed: f3 44 0f 59 cc               	mulss	xmm9, xmm4
 2001ef2: f3 41 0f 58 c1               	addss	xmm0, xmm9
 2001ef7: f3 44 0f 10 0d 90 21 00 00   	movss	xmm9, dword ptr [rip + 0x2190] # 0x2004090 <gfx_present+0x12b>
 2001f00: 41 0f 57 c1                  	xorps	xmm0, xmm9
 2001f04: 0f 14 e0                     	unpcklps	xmm4, xmm0              # xmm4 = xmm4[0],xmm0[0],xmm4[1],xmm0[1]
 2001f07: 41 0f 28 c4                  	movaps	xmm0, xmm12
 2001f0b: f3 0f 59 c1                  	mulss	xmm0, xmm1
 2001f0f: 44 0f 16 c4                  	movlhps	xmm8, xmm4              # xmm8 = xmm8[0],xmm4[0]
 2001f13: 41 0f 28 e2                  	movaps	xmm4, xmm10
 2001f17: f3 41 0f 59 e5               	mulss	xmm4, xmm13
 2001f1c: f3 0f 59 ca                  	mulss	xmm1, xmm2
 2001f20: 0f 14 d5                     	unpcklps	xmm2, xmm5              # xmm2 = xmm2[0],xmm5[0],xmm2[1],xmm5[1]
 2001f23: f3 0f 58 c4                  	addss	xmm0, xmm4
 2001f27: 41 0f 28 e3                  	movaps	xmm4, xmm11
 2001f2b: f3 0f 59 e7                  	mulss	xmm4, xmm7
 2001f2f: f3 0f 59 fb                  	mulss	xmm7, xmm3
 2001f33: f3 0f 58 c4                  	addss	xmm0, xmm4
 2001f37: 41 0f 28 e2                  	movaps	xmm4, xmm10
 2001f3b: f3 0f 59 e5                  	mulss	xmm4, xmm5
 2001f3f: 41 0f 57 c1                  	xorps	xmm0, xmm9
 2001f43: 44 0f 14 d8                  	unpcklps	xmm11, xmm0             # xmm11 = xmm11[0],xmm0[0],xmm11[1],xmm0[1]
 2001f47: 41 0f 16 f3                  	movlhps	xmm6, xmm11             # xmm6 = xmm6[0],xmm11[0]
 2001f4b: f3 0f 58 cc                  	addss	xmm1, xmm4
 2001f4f: f3 0f 58 cf                  	addss	xmm1, xmm7
 2001f53: 41 0f 57 c9                  	xorps	xmm1, xmm9
 2001f57: 0f 14 d9                     	unpcklps	xmm3, xmm1              # xmm3 = xmm3[0],xmm1[0],xmm3[1],xmm1[1]
 2001f5a: 0f 16 d3                     	movlhps	xmm2, xmm3              # xmm2 = xmm2[0],xmm3[0]
 2001f5d: e9 f6 fd ff ff               	jmp	0x2001d58 <mat_lookat+0xb8>
 2001f62: 66 2e 0f 1f 84 00 00 00 00 00	nop	word ptr cs:[rax + rax]
 2001f6c: 0f 1f 40 00                  	nop	dword ptr [rax]

0000000002001f70 <gfxdemo>:
 2001f70: 41 57                        	push	r15
 2001f72: bf 40 00 00 00               	mov	edi, 0x40
 2001f77: 31 c0                        	xor	eax, eax
 2001f79: 41 56                        	push	r14
 2001f7b: 45 31 f6                     	xor	r14d, r14d
 2001f7e: 41 55                        	push	r13
 2001f80: 41 bd 01 00 00 00            	mov	r13d, 0x1
 2001f86: 41 54                        	push	r12
 2001f88: 45 31 e4                     	xor	r12d, r12d
 2001f8b: 55                           	push	rbp
 2001f8c: 31 ed                        	xor	ebp, ebp
 2001f8e: 53                           	push	rbx
 2001f8f: 48 83 ec 68                  	sub	rsp, 0x68
 2001f93: e8 f8 1e 00 00               	call	0x2003e90 <_syscall>
 2001f98: 31 f6                        	xor	esi, esi
 2001f9a: bf 41 00 00 00               	mov	edi, 0x41
 2001f9f: 48 89 44 24 08               	mov	qword ptr [rsp + 0x8], rax
 2001fa4: 31 c0                        	xor	eax, eax
 2001fa6: e8 e5 1e 00 00               	call	0x2003e90 <_syscall>
 2001fab: bf 50 00 00 00               	mov	edi, 0x50
 2001fb0: 31 c0                        	xor	eax, eax
 2001fb2: e8 d9 1e 00 00               	call	0x2003e90 <_syscall>
 2001fb7: 48 89 04 24                  	mov	qword ptr [rsp], rax
 2001fbb: 0f 1f 44 00 00               	nop	dword ptr [rax + rax]
 2001fc0: 41 0f b6 fc                  	movzx	edi, r12b
 2001fc4: 45 01 ec                     	add	r12d, r13d
 2001fc7: bb 64 00 00 00               	mov	ebx, 0x64
 2001fcc: c1 e7 08                     	shl	edi, 0x8
 2001fcf: 40 80 cf 80                  	or	dil, -0x80
 2001fd3: e8 fd 1e 00 00               	call	0x2003ed5 <vga_clear>
 2001fd8: 41 8d 54 24 ff               	lea	edx, [r12 - 0x1]
 2001fdd: 44 89 e8                     	mov	eax, r13d
 2001fe0: 41 b8 c0 c0 c0 00            	mov	r8d, 0xc0c0c0
 2001fe6: f7 d8                        	neg	eax
 2001fe8: 80 fa fd                     	cmp	dl, -0x3
 2001feb: b9 2c 01 00 00               	mov	ecx, 0x12c
 2001ff0: ba 2c 01 00 00               	mov	edx, 0x12c
 2001ff5: 44 0f 47 e8                  	cmova	r13d, eax
 2001ff9: be 64 00 00 00               	mov	esi, 0x64
 2001ffe: 45 31 c9                     	xor	r9d, r9d
 2002001: bf 64 00 00 00               	mov	edi, 0x64
 2002006: e8 e2 1e 00 00               	call	0x2003eed <vga_rect>
 200200b: 45 31 c9                     	xor	r9d, r9d
 200200e: 41 b8 00 00 ff 00            	mov	r8d, 0xff0000
 2002014: b9 2c 01 00 00               	mov	ecx, 0x12c
 2002019: ba 2c 01 00 00               	mov	edx, 0x12c
 200201e: be 64 00 00 00               	mov	esi, 0x64
 2002023: bf 64 00 00 00               	mov	edi, 0x64
 2002028: e8 d0 1e 00 00               	call	0x2003efd <vga_shade>
 200202d: 45 31 c9                     	xor	r9d, r9d
 2002030: 41 b8 80 ff 80 00            	mov	r8d, 0x80ff80
 2002036: b9 2c 01 00 00               	mov	ecx, 0x12c
 200203b: ba 2c 01 00 00               	mov	edx, 0x12c
 2002040: be 64 00 00 00               	mov	esi, 0x64
 2002045: bf 64 00 00 00               	mov	edi, 0x64
 200204a: e8 a6 1e 00 00               	call	0x2003ef5 <vga_frame>
 200204f: 90                           	nop
 2002050: 89 d9                        	mov	ecx, ebx
 2002052: 89 de                        	mov	esi, ebx
 2002054: 45 31 c9                     	xor	r9d, r9d
 2002057: 41 b8 ff ff ff 00            	mov	r8d, 0xffffff
 200205d: ba 58 02 00 00               	mov	edx, 0x258
 2002062: bf 90 01 00 00               	mov	edi, 0x190
 2002067: 83 c3 19                     	add	ebx, 0x19
 200206a: e8 76 1e 00 00               	call	0x2003ee5 <vga_line>
 200206f: 81 fb 45 01 00 00            	cmp	ebx, 0x145
 2002075: 75 d9                        	jne	0x2002050 <gfxdemo+0xe0>
 2002077: bb 90 01 00 00               	mov	ebx, 0x190
 200207c: 0f 1f 40 00                  	nop	dword ptr [rax]
 2002080: 89 da                        	mov	edx, ebx
 2002082: 89 df                        	mov	edi, ebx
 2002084: 45 31 c9                     	xor	r9d, r9d
 2002087: 41 b8 ff ff ff 00            	mov	r8d, 0xffffff
 200208d: b9 2c 01 00 00               	mov	ecx, 0x12c
 2002092: be 64 00 00 00               	mov	esi, 0x64
 2002097: 83 c3 19                     	add	ebx, 0x19
 200209a: e8 46 1e 00 00               	call	0x2003ee5 <vga_line>
 200209f: 81 fb 71 02 00 00            	cmp	ebx, 0x271
 20020a5: 75 d9                        	jne	0x2002080 <gfxdemo+0x110>
 20020a7: bb 90 01 00 00               	mov	ebx, 0x190
 20020ac: 0f 1f 40 00                  	nop	dword ptr [rax]
 20020b0: 41 bf 64 00 00 00            	mov	r15d, 0x64
 20020b6: 66 2e 0f 1f 84 00 00 00 00 00	nop	word ptr cs:[rax + rax]
 20020c0: 44 89 fa                     	mov	edx, r15d
 20020c3: 45 31 c9                     	xor	r9d, r9d
 20020c6: 41 b8 ff ff 00 00            	mov	r8d, 0xffff
 20020cc: 89 d9                        	mov	ecx, ebx
 20020ce: be f4 01 00 00               	mov	esi, 0x1f4
 20020d3: bf c8 00 00 00               	mov	edi, 0xc8
 20020d8: 41 83 c7 19                  	add	r15d, 0x19
 20020dc: e8 04 1e 00 00               	call	0x2003ee5 <vga_line>
 20020e1: 41 81 ff 45 01 00 00         	cmp	r15d, 0x145
 20020e8: 75 d6                        	jne	0x20020c0 <gfxdemo+0x150>
 20020ea: 83 c3 19                     	add	ebx, 0x19
 20020ed: 81 fb 71 02 00 00            	cmp	ebx, 0x271
 20020f3: 75 bb                        	jne	0x20020b0 <gfxdemo+0x140>
 20020f5: 45 31 c9                     	xor	r9d, r9d
 20020f8: b9 f4 01 00 00               	mov	ecx, 0x1f4
 20020fd: ba 58 02 00 00               	mov	edx, 0x258
 2002102: 49 b8 80 aa c0 00 40 55 aa 00	movabs	r8, 0xaa554000c0aa80
 200210c: be 90 01 00 00               	mov	esi, 0x190
 2002111: bf 90 01 00 00               	mov	edi, 0x190
 2002116: e8 ea 1d 00 00               	call	0x2003f05 <vga_gradient>
 200211b: 41 b9 01 00 00 00            	mov	r9d, 0x1
 2002121: b9 58 02 00 00               	mov	ecx, 0x258
 2002126: 49 b8 80 aa c0 00 40 55 aa 00	movabs	r8, 0xaa554000c0aa80
 2002130: ba 58 02 00 00               	mov	edx, 0x258
 2002135: be f4 01 00 00               	mov	esi, 0x1f4
 200213a: bf 90 01 00 00               	mov	edi, 0x190
 200213f: e8 c1 1d 00 00               	call	0x2003f05 <vga_gradient>
 2002144: 45 31 c9                     	xor	r9d, r9d
 2002147: 45 31 c0                     	xor	r8d, r8d
 200214a: b9 ff ff ff 00               	mov	ecx, 0xffffff
 200214f: ba f8 40 00 02               	mov	edx, 0x20040f8
 2002154: be 64 00 00 00               	mov	esi, 0x64
 2002159: bf bc 02 00 00               	mov	edi, 0x2bc
 200215e: e8 b2 1d 00 00               	call	0x2003f15 <vga_text>
 2002163: 45 31 c9                     	xor	r9d, r9d
 2002166: 45 31 c0                     	xor	r8d, r8d
 2002169: b9 ff ff ff 00               	mov	ecx, 0xffffff
 200216e: ba 20 41 00 02               	mov	edx, 0x2004120
 2002173: be 84 00 00 00               	mov	esi, 0x84
 2002178: bf bc 02 00 00               	mov	edi, 0x2bc
 200217d: e8 93 1d 00 00               	call	0x2003f15 <vga_text>
 2002182: 41 b9 08 00 00 00            	mov	r9d, 0x8
 2002188: b9 48 41 00 02               	mov	ecx, 0x2004148
 200218d: 49 b8 00 00 00 00 ff ff ff 00	movabs	r8, 0xffffff00000000
 2002197: ba c8 00 00 00               	mov	edx, 0xc8
 200219c: be 90 01 00 00               	mov	esi, 0x190
 20021a1: bf bc 02 00 00               	mov	edi, 0x2bc
 20021a6: e8 72 1d 00 00               	call	0x2003f1d <vga_textWrap>
 20021ab: 41 b9 04 00 00 00            	mov	r9d, 0x4
 20021b1: 41 b8 ff 80 ff 80            	mov	r8d, 0x80ff80ff
 20021b7: b9 58 02 00 00               	mov	ecx, 0x258
 20021bc: ba 20 03 00 00               	mov	edx, 0x320
 20021c1: be 90 01 00 00               	mov	esi, 0x190
 20021c6: bf bc 02 00 00               	mov	edi, 0x2bc
 20021cb: e8 1d 1d 00 00               	call	0x2003eed <vga_rect>
 20021d0: 31 c9                        	xor	ecx, ecx
 20021d2: 41 b9 03 00 00 00            	mov	r9d, 0x3
 20021d8: 41 b8 ff ff ff 00            	mov	r8d, 0xffffff
 20021de: ba 30 42 00 02               	mov	edx, 0x2004230
 20021e3: be bc 02 00 00               	mov	esi, 0x2bc
 20021e8: bf a4 01 00 00               	mov	edi, 0x1a4
 20021ed: e8 23 1d 00 00               	call	0x2003f15 <vga_text>
 20021f2: 4d 85 f6                     	test	r14, r14
 20021f5: 0f 84 98 00 00 00            	je	0x2002293 <gfxdemo+0x323>
 20021fb: 48 8d 44 ad 00               	lea	rax, [rbp + 4*rbp]
 2002200: 31 d2                        	xor	edx, edx
 2002202: be 00 40 00 02               	mov	esi, 0x2004000
 2002207: 48 8d 44 45 00               	lea	rax, [rbp + 2*rax]
 200220c: 48 8d 7c 24 20               	lea	rdi, [rsp + 0x20]
 2002211: 48 8d 04 80                  	lea	rax, [rax + 4*rax]
 2002215: 49 f7 f6                     	div	r14
 2002218: 49 83 c6 01                  	add	r14, 0x1
 200221c: 48 89 c2                     	mov	rdx, rax
 200221f: 31 c0                        	xor	eax, eax
 2002221: e8 da 10 00 00               	call	0x2003300 <sprintf>
 2002226: b9 ff ff ff 00               	mov	ecx, 0xffffff
 200222b: 45 31 c0                     	xor	r8d, r8d
 200222e: 31 f6                        	xor	esi, esi
 2002230: 41 b9 01 00 00 00            	mov	r9d, 0x1
 2002236: 48 8d 54 24 20               	lea	rdx, [rsp + 0x20]
 200223b: 31 ff                        	xor	edi, edi
 200223d: e8 d3 1c 00 00               	call	0x2003f15 <vga_text>
 2002242: 31 c0                        	xor	eax, eax
 2002244: e8 dc 1c 00 00               	call	0x2003f25 <vga_present>
 2002249: 31 c0                        	xor	eax, eax
 200224b: e8 75 1c 00 00               	call	0x2003ec5 <kbd_getKeyEvent>
 2002250: bf 50 00 00 00               	mov	edi, 0x50
 2002255: 48 63 d8                     	movsxd	rbx, eax
 2002258: 31 c0                        	xor	eax, eax
 200225a: e8 31 1c 00 00               	call	0x2003e90 <_syscall>
 200225f: 48 8b 0c 24                  	mov	rcx, qword ptr [rsp]
 2002263: 48 29 c8                     	sub	rax, rcx
 2002266: 48 89 c5                     	mov	rbp, rax
 2002269: 84 db                        	test	bl, bl
 200226b: 0f 84 4f fd ff ff            	je	0x2001fc0 <gfxdemo+0x50>
 2002271: 0f b6 74 24 08               	movzx	esi, byte ptr [rsp + 0x8]
 2002276: bf 41 00 00 00               	mov	edi, 0x41
 200227b: 31 c0                        	xor	eax, eax
 200227d: e8 0e 1c 00 00               	call	0x2003e90 <_syscall>
 2002282: 48 83 c4 68                  	add	rsp, 0x68
 2002286: 31 c0                        	xor	eax, eax
 2002288: 5b                           	pop	rbx
 2002289: 5d                           	pop	rbp
 200228a: 41 5c                        	pop	r12
 200228c: 41 5d                        	pop	r13
 200228e: 41 5e                        	pop	r14
 2002290: 41 5f                        	pop	r15
 2002292: c3                           	ret
 2002293: 31 d2                        	xor	edx, edx
 2002295: be 00 40 00 02               	mov	esi, 0x2004000
 200229a: 48 8d 7c 24 20               	lea	rdi, [rsp + 0x20]
 200229f: 31 c0                        	xor	eax, eax
 20022a1: e8 5a 10 00 00               	call	0x2003300 <sprintf>
 20022a6: b9 ff ff ff 00               	mov	ecx, 0xffffff
 20022ab: 45 31 c0                     	xor	r8d, r8d
 20022ae: 31 f6                        	xor	esi, esi
 20022b0: 41 b9 01 00 00 00            	mov	r9d, 0x1
 20022b6: 48 8d 54 24 20               	lea	rdx, [rsp + 0x20]
 20022bb: 31 ff                        	xor	edi, edi
 20022bd: e8 53 1c 00 00               	call	0x2003f15 <vga_text>
 20022c2: 31 c0                        	xor	eax, eax
 20022c4: e8 5c 1c 00 00               	call	0x2003f25 <vga_present>
 20022c9: 31 c0                        	xor	eax, eax
 20022cb: e8 f5 1b 00 00               	call	0x2003ec5 <kbd_getKeyEvent>
 20022d0: bf 50 00 00 00               	mov	edi, 0x50
 20022d5: 48 63 d8                     	movsxd	rbx, eax
 20022d8: 31 c0                        	xor	eax, eax
 20022da: e8 b1 1b 00 00               	call	0x2003e90 <_syscall>
 20022df: 48 8b 0c 24                  	mov	rcx, qword ptr [rsp]
 20022e3: 48 29 c8                     	sub	rax, rcx
 20022e6: 48 89 c5                     	mov	rbp, rax
 20022e9: 84 db                        	test	bl, bl
 20022eb: 75 84                        	jne	0x2002271 <gfxdemo+0x301>
 20022ed: 41 be 01 00 00 00            	mov	r14d, 0x1
 20022f3: e9 c8 fc ff ff               	jmp	0x2001fc0 <gfxdemo+0x50>
 20022f8: 0f 1f 84 00 00 00 00 00      	nop	dword ptr [rax + rax]

0000000002002300 <vsprintf>:
 2002300: 41 57                        	push	r15
 2002302: 41 56                        	push	r14
 2002304: 41 55                        	push	r13
 2002306: 41 54                        	push	r12
 2002308: 55                           	push	rbp
 2002309: 48 89 fd                     	mov	rbp, rdi
 200230c: 53                           	push	rbx
 200230d: 48 83 ec 78                  	sub	rsp, 0x78
 2002311: 0f b6 06                     	movzx	eax, byte ptr [rsi]
 2002314: 84 c0                        	test	al, al
 2002316: 0f 84 ca 0a 00 00            	je	0x2002de6 <vsprintf+0xae6>
 200231c: 49 89 d5                     	mov	r13, rdx
 200231f: 45 31 e4                     	xor	r12d, r12d
 2002322: 48 8d 56 01                  	lea	rdx, [rsi + 0x1]
 2002326: 49 89 fb                     	mov	r11, rdi
 2002329: 49 bf ff ff ff ff ff 00 ff ff	movabs	r15, -0xff0000000001
 2002333: 31 f6                        	xor	esi, esi
 2002335: 4c 89 ed                     	mov	rbp, r13
 2002338: eb 21                        	jmp	0x200235b <vsprintf+0x5b>
 200233a: 66 0f 1f 44 00 00            	nop	word ptr [rax + rax]
 2002340: 41 88 00                     	mov	byte ptr [r8], al
 2002343: 83 c6 01                     	add	esi, 0x1
 2002346: 48 89 d1                     	mov	rcx, rdx
 2002349: 4c 63 e6                     	movsxd	r12, esi
 200234c: 0f b6 01                     	movzx	eax, byte ptr [rcx]
 200234f: 48 8d 51 01                  	lea	rdx, [rcx + 0x1]
 2002353: 84 c0                        	test	al, al
 2002355: 0f 84 3b 01 00 00            	je	0x2002496 <vsprintf+0x196>
 200235b: 4f 8d 04 23                  	lea	r8, [r11 + r12]
 200235f: 3c 25                        	cmp	al, 0x25
 2002361: 75 dd                        	jne	0x2002340 <vsprintf+0x40>
 2002363: 48 89 d1                     	mov	rcx, rdx
 2002366: 45 31 d2                     	xor	r10d, r10d
 2002369: 45 31 c9                     	xor	r9d, r9d
 200236c: 31 c0                        	xor	eax, eax
 200236e: 0f b6 19                     	movzx	ebx, byte ptr [rcx]
 2002371: ba 20 00 00 00               	mov	edx, 0x20
 2002376: 80 fb 23                     	cmp	bl, 0x23
 2002379: 74 7f                        	je	0x20023fa <vsprintf+0xfa>
 200237b: 0f 1f 44 00 00               	nop	dword ptr [rax + rax]
 2002380: 48 83 c1 01                  	add	rcx, 0x1
 2002384: 80 fb 30                     	cmp	bl, 0x30
 2002387: 0f 85 80 00 00 00            	jne	0x200240d <vsprintf+0x10d>
 200238d: 0f 1f 00                     	nop	dword ptr [rax]
 2002390: 0f b6 39                     	movzx	edi, byte ptr [rcx]
 2002393: 48 83 c1 01                  	add	rcx, 0x1
 2002397: 40 80 ff 30                  	cmp	dil, 0x30
 200239b: 74 f3                        	je	0x2002390 <vsprintf+0x90>
 200239d: 8d 57 d0                     	lea	edx, [rdi - 0x30]
 20023a0: 41 89 fd                     	mov	r13d, edi
 20023a3: 80 fa 09                     	cmp	dl, 0x9
 20023a6: 77 25                        	ja	0x20023cd <vsprintf+0xcd>
 20023a8: 0f 1f 84 00 00 00 00 00      	nop	dword ptr [rax + rax]
 20023b0: 8d 04 80                     	lea	eax, [rax + 4*rax]
 20023b3: 48 83 c1 01                  	add	rcx, 0x1
 20023b7: 41 8d 44 45 d0               	lea	eax, [r13 + 2*rax - 0x30]
 20023bc: 44 0f b6 69 ff               	movzx	r13d, byte ptr [rcx - 0x1]
 20023c1: 41 8d 55 d0                  	lea	edx, [r13 - 0x30]
 20023c5: 44 89 ef                     	mov	edi, r13d
 20023c8: 80 fa 09                     	cmp	dl, 0x9
 20023cb: 76 e3                        	jbe	0x20023b0 <vsprintf+0xb0>
 20023cd: 40 80 ff 25                  	cmp	dil, 0x25
 20023d1: 0f 84 41 01 00 00            	je	0x2002518 <vsprintf+0x218>
 20023d7: 8d 57 9e                     	lea	edx, [rdi - 0x62]
 20023da: 80 fa 16                     	cmp	dl, 0x16
 20023dd: 77 11                        	ja	0x20023f0 <vsprintf+0xf0>
 20023df: 0f b6 d2                     	movzx	edx, dl
 20023e2: ff 24 d5 48 42 00 02         	jmp	qword ptr [8*rdx + 0x2004248]
 20023e9: 41 ba 01 00 00 00            	mov	r10d, 0x1
 20023ef: 90                           	nop
 20023f0: 89 da                        	mov	edx, ebx
 20023f2: 0f b6 19                     	movzx	ebx, byte ptr [rcx]
 20023f5: 80 fb 23                     	cmp	bl, 0x23
 20023f8: 75 86                        	jne	0x2002380 <vsprintf+0x80>
 20023fa: 0f b6 59 01                  	movzx	ebx, byte ptr [rcx + 0x1]
 20023fe: 41 b9 01 00 00 00            	mov	r9d, 0x1
 2002404: 48 83 c1 02                  	add	rcx, 0x2
 2002408: 80 fb 30                     	cmp	bl, 0x30
 200240b: 74 83                        	je	0x2002390 <vsprintf+0x90>
 200240d: 89 df                        	mov	edi, ebx
 200240f: 89 d3                        	mov	ebx, edx
 2002411: eb 8a                        	jmp	0x200239d <vsprintf+0x9d>
 2002413: 0f 1f 44 00 00               	nop	dword ptr [rax + rax]
 2002418: 45 85 c9                     	test	r9d, r9d
 200241b: 0f 84 54 05 00 00            	je	0x2002975 <vsprintf+0x675>
 2002421: 40 80 ff 78                  	cmp	dil, 0x78
 2002425: 0f 84 a5 05 00 00            	je	0x20029d0 <vsprintf+0x6d0>
 200242b: 41 b9 0a 00 00 00            	mov	r9d, 0xa
 2002431: 40 80 ff 62                  	cmp	dil, 0x62
 2002435: 0f 84 95 05 00 00            	je	0x20029d0 <vsprintf+0x6d0>
 200243b: 8b 55 00                     	mov	edx, dword ptr [rbp]
 200243e: 45 85 d2                     	test	r10d, r10d
 2002441: 0f 84 e0 00 00 00            	je	0x2002527 <vsprintf+0x227>
 2002447: 83 fa 2f                     	cmp	edx, 0x2f
 200244a: 0f 87 6f 05 00 00            	ja	0x20029bf <vsprintf+0x6bf>
 2002450: 89 d7                        	mov	edi, edx
 2002452: 83 c2 08                     	add	edx, 0x8
 2002455: 48 03 7d 10                  	add	rdi, qword ptr [rbp + 0x10]
 2002459: 89 55 00                     	mov	dword ptr [rbp], edx
 200245c: 4c 8b 07                     	mov	r8, qword ptr [rdi]
 200245f: e9 db 00 00 00               	jmp	0x200253f <vsprintf+0x23f>
 2002464: 8b 45 00                     	mov	eax, dword ptr [rbp]
 2002467: 83 f8 2f                     	cmp	eax, 0x2f
 200246a: 0f 87 2d 05 00 00            	ja	0x200299d <vsprintf+0x69d>
 2002470: 89 c2                        	mov	edx, eax
 2002472: 83 c0 08                     	add	eax, 0x8
 2002475: 48 03 55 10                  	add	rdx, qword ptr [rbp + 0x10]
 2002479: 89 45 00                     	mov	dword ptr [rbp], eax
 200247c: 8b 02                        	mov	eax, dword ptr [rdx]
 200247e: 83 c6 01                     	add	esi, 0x1
 2002481: 48 8d 51 01                  	lea	rdx, [rcx + 0x1]
 2002485: 4c 63 e6                     	movsxd	r12, esi
 2002488: 41 88 00                     	mov	byte ptr [r8], al
 200248b: 0f b6 01                     	movzx	eax, byte ptr [rcx]
 200248e: 84 c0                        	test	al, al
 2002490: 0f 85 c5 fe ff ff            	jne	0x200235b <vsprintf+0x5b>
 2002496: 4c 89 dd                     	mov	rbp, r11
 2002499: 4c 01 e5                     	add	rbp, r12
 200249c: c6 45 00 00                  	mov	byte ptr [rbp], 0x0
 20024a0: 48 83 c4 78                  	add	rsp, 0x78
 20024a4: 89 f0                        	mov	eax, esi
 20024a6: 5b                           	pop	rbx
 20024a7: 5d                           	pop	rbp
 20024a8: 41 5c                        	pop	r12
 20024aa: 41 5d                        	pop	r13
 20024ac: 41 5e                        	pop	r14
 20024ae: 41 5f                        	pop	r15
 20024b0: c3                           	ret
 20024b1: 8b 45 00                     	mov	eax, dword ptr [rbp]
 20024b4: 83 f8 2f                     	cmp	eax, 0x2f
 20024b7: 0f 87 9d 04 00 00            	ja	0x200295a <vsprintf+0x65a>
 20024bd: 89 c2                        	mov	edx, eax
 20024bf: 83 c0 08                     	add	eax, 0x8
 20024c2: 48 03 55 10                  	add	rdx, qword ptr [rbp + 0x10]
 20024c6: 89 45 00                     	mov	dword ptr [rbp], eax
 20024c9: 48 8b 3a                     	mov	rdi, qword ptr [rdx]
 20024cc: 0f b6 17                     	movzx	edx, byte ptr [rdi]
 20024cf: 84 d2                        	test	dl, dl
 20024d1: 0f 84 75 fe ff ff            	je	0x200234c <vsprintf+0x4c>
 20024d7: 8d 46 01                     	lea	eax, [rsi + 0x1]
 20024da: 4c 29 e7                     	sub	rdi, r12
 20024dd: 48 98                        	cdqe
 20024df: 90                           	nop
 20024e0: 41 88 54 03 ff               	mov	byte ptr [r11 + rax - 0x1], dl
 20024e5: 48 89 c6                     	mov	rsi, rax
 20024e8: 48 83 c0 01                  	add	rax, 0x1
 20024ec: 0f b6 54 07 ff               	movzx	edx, byte ptr [rdi + rax - 0x1]
 20024f1: 84 d2                        	test	dl, dl
 20024f3: 75 eb                        	jne	0x20024e0 <vsprintf+0x1e0>
 20024f5: e9 4f fe ff ff               	jmp	0x2002349 <vsprintf+0x49>
 20024fa: 8b 45 00                     	mov	eax, dword ptr [rbp]
 20024fd: 83 f8 2f                     	cmp	eax, 0x2f
 2002500: 0f 87 65 04 00 00            	ja	0x200296b <vsprintf+0x66b>
 2002506: 83 c0 08                     	add	eax, 0x8
 2002509: 89 45 00                     	mov	dword ptr [rbp], eax
 200250c: e9 3b fe ff ff               	jmp	0x200234c <vsprintf+0x4c>
 2002511: 0f 1f 80 00 00 00 00         	nop	dword ptr [rax]
 2002518: 83 c6 01                     	add	esi, 0x1
 200251b: 41 c6 00 25                  	mov	byte ptr [r8], 0x25
 200251f: 4c 63 e6                     	movsxd	r12, esi
 2002522: e9 25 fe ff ff               	jmp	0x200234c <vsprintf+0x4c>
 2002527: 83 fa 2f                     	cmp	edx, 0x2f
 200252a: 0f 87 7e 04 00 00            	ja	0x20029ae <vsprintf+0x6ae>
 2002530: 89 d7                        	mov	edi, edx
 2002532: 83 c2 08                     	add	edx, 0x8
 2002535: 48 03 7d 10                  	add	rdi, qword ptr [rbp + 0x10]
 2002539: 89 55 00                     	mov	dword ptr [rbp], edx
 200253c: 44 8b 07                     	mov	r8d, dword ptr [rdi]
 200253f: 44 0f b6 e8                  	movzx	r13d, al
 2002543: 31 ff                        	xor	edi, edi
 2002545: 0f 1f 00                     	nop	dword ptr [rax]
 2002548: 4c 89 c0                     	mov	rax, r8
 200254b: 31 d2                        	xor	edx, edx
 200254d: 44 0f b6 d7                  	movzx	r10d, dil
 2002551: 83 c7 01                     	add	edi, 0x1
 2002554: 49 f7 f1                     	div	r9
 2002557: 42 88 54 14 30               	mov	byte ptr [rsp + r10 + 0x30], dl
 200255c: 4c 89 c2                     	mov	rdx, r8
 200255f: 49 89 c0                     	mov	r8, rax
 2002562: 4c 39 ca                     	cmp	rdx, r9
 2002565: 73 e1                        	jae	0x2002548 <vsprintf+0x248>
 2002567: 44 0f b6 d7                  	movzx	r10d, dil
 200256b: 45 29 d5                     	sub	r13d, r10d
 200256e: 45 85 ed                     	test	r13d, r13d
 2002571: 0f 8e 50 08 00 00            	jle	0x2002dc7 <vsprintf+0xac7>
 2002577: 41 8d 45 ff                  	lea	eax, [r13 - 0x1]
 200257b: 83 f8 0e                     	cmp	eax, 0xe
 200257e: 0f 86 5b 08 00 00            	jbe	0x2002ddf <vsprintf+0xadf>
 2002584: 44 0f b6 c3                  	movzx	r8d, bl
 2002588: 0f b6 d3                     	movzx	edx, bl
 200258b: 45 89 e9                     	mov	r9d, r13d
 200258e: 4c 89 c0                     	mov	rax, r8
 2002591: 88 de                        	mov	dh, bl
 2002593: 4d 89 c6                     	mov	r14, r8
 2002596: 41 c1 e9 04                  	shr	r9d, 0x4
 200259a: 48 c1 e0 10                  	shl	rax, 0x10
 200259e: 48 81 e2 ff ff 00 ff         	and	rdx, -0xff0001
 20025a5: 49 c1 e6 18                  	shl	r14, 0x18
 20025a9: 48 89 44 24 08               	mov	qword ptr [rsp + 0x8], rax
 20025ae: 48 09 c2                     	or	rdx, rax
 20025b1: 48 b8 ff ff ff 00 ff ff ff ff	movabs	rax, -0xff000001
 20025bb: 48 21 c2                     	and	rdx, rax
 20025be: 4c 89 74 24 10               	mov	qword ptr [rsp + 0x10], r14
 20025c3: 4c 89 c0                     	mov	rax, r8
 20025c6: 4c 09 f2                     	or	rdx, r14
 20025c9: 48 c1 e0 20                  	shl	rax, 0x20
 20025cd: 49 be ff ff ff ff 00 ff ff ff	movabs	r14, -0xff00000001
 20025d7: 4c 21 f2                     	and	rdx, r14
 20025da: 48 89 44 24 18               	mov	qword ptr [rsp + 0x18], rax
 20025df: 49 be ff ff ff ff ff ff 00 ff	movabs	r14, -0xff000000000001
 20025e9: 48 09 c2                     	or	rdx, rax
 20025ec: 4c 89 c0                     	mov	rax, r8
 20025ef: 48 c1 e0 28                  	shl	rax, 0x28
 20025f3: 4c 21 fa                     	and	rdx, r15
 20025f6: 48 89 44 24 20               	mov	qword ptr [rsp + 0x20], rax
 20025fb: 48 09 c2                     	or	rdx, rax
 20025fe: 4c 89 c0                     	mov	rax, r8
 2002601: 49 c1 e0 38                  	shl	r8, 0x38
 2002605: 48 c1 e0 30                  	shl	rax, 0x30
 2002609: 4c 21 f2                     	and	rdx, r14
 200260c: 4c 8b 74 24 08               	mov	r14, qword ptr [rsp + 0x8]
 2002611: 48 89 44 24 28               	mov	qword ptr [rsp + 0x28], rax
 2002616: 48 09 c2                     	or	rdx, rax
 2002619: 48 b8 ff ff ff ff ff ff ff 00	movabs	rax, 0xffffffffffffff
 2002623: 48 21 c2                     	and	rdx, rax
 2002626: 0f b6 c3                     	movzx	eax, bl
 2002629: 88 dc                        	mov	ah, bl
 200262b: 4c 09 c2                     	or	rdx, r8
 200262e: 48 25 ff ff 00 ff            	and	rax, -0xff0001
 2002634: 48 89 15 c5 3b 00 00         	mov	qword ptr [rip + 0x3bc5], rdx # 0x2006200 <buffer.1>
 200263b: 4c 09 f0                     	or	rax, r14
 200263e: 49 be ff ff ff 00 ff ff ff ff	movabs	r14, -0xff000001
 2002648: 4c 21 f0                     	and	rax, r14
 200264b: 4c 8b 74 24 10               	mov	r14, qword ptr [rsp + 0x10]
 2002650: 4c 09 f0                     	or	rax, r14
 2002653: 49 be ff ff ff ff 00 ff ff ff	movabs	r14, -0xff00000001
 200265d: 4c 21 f0                     	and	rax, r14
 2002660: 4c 8b 74 24 18               	mov	r14, qword ptr [rsp + 0x18]
 2002665: 4c 09 f0                     	or	rax, r14
 2002668: 4c 8b 74 24 20               	mov	r14, qword ptr [rsp + 0x20]
 200266d: 4c 21 f8                     	and	rax, r15
 2002670: 4c 09 f0                     	or	rax, r14
 2002673: 49 be ff ff ff ff ff ff 00 ff	movabs	r14, -0xff000000000001
 200267d: 4c 21 f0                     	and	rax, r14
 2002680: 4c 8b 74 24 28               	mov	r14, qword ptr [rsp + 0x28]
 2002685: 4c 09 f0                     	or	rax, r14
 2002688: 49 be ff ff ff ff ff ff ff 00	movabs	r14, 0xffffffffffffff
 2002692: 4c 21 f0                     	and	rax, r14
 2002695: 4c 09 c0                     	or	rax, r8
 2002698: 48 89 05 69 3b 00 00         	mov	qword ptr [rip + 0x3b69], rax # 0x2006208 <buffer.1+0x8>
 200269f: 41 83 f9 01                  	cmp	r9d, 0x1
 20026a3: 0f 84 37 01 00 00            	je	0x20027e0 <vsprintf+0x4e0>
 20026a9: 48 89 15 60 3b 00 00         	mov	qword ptr [rip + 0x3b60], rdx # 0x2006210 <buffer.1+0x10>
 20026b0: 48 89 05 61 3b 00 00         	mov	qword ptr [rip + 0x3b61], rax # 0x2006218 <buffer.1+0x18>
 20026b7: 41 83 f9 02                  	cmp	r9d, 0x2
 20026bb: 0f 84 1f 01 00 00            	je	0x20027e0 <vsprintf+0x4e0>
 20026c1: 48 89 15 58 3b 00 00         	mov	qword ptr [rip + 0x3b58], rdx # 0x2006220 <buffer.1+0x20>
 20026c8: 48 89 05 59 3b 00 00         	mov	qword ptr [rip + 0x3b59], rax # 0x2006228 <buffer.1+0x28>
 20026cf: 41 83 f9 03                  	cmp	r9d, 0x3
 20026d3: 0f 84 07 01 00 00            	je	0x20027e0 <vsprintf+0x4e0>
 20026d9: 48 89 15 50 3b 00 00         	mov	qword ptr [rip + 0x3b50], rdx # 0x2006230 <buffer.1+0x30>
 20026e0: 48 89 05 51 3b 00 00         	mov	qword ptr [rip + 0x3b51], rax # 0x2006238 <buffer.1+0x38>
 20026e7: 41 83 f9 04                  	cmp	r9d, 0x4
 20026eb: 0f 84 ef 00 00 00            	je	0x20027e0 <vsprintf+0x4e0>
 20026f1: 48 89 15 48 3b 00 00         	mov	qword ptr [rip + 0x3b48], rdx # 0x2006240 <buffer.1+0x40>
 20026f8: 48 89 05 49 3b 00 00         	mov	qword ptr [rip + 0x3b49], rax # 0x2006248 <buffer.1+0x48>
 20026ff: 41 83 f9 05                  	cmp	r9d, 0x5
 2002703: 0f 84 d7 00 00 00            	je	0x20027e0 <vsprintf+0x4e0>
 2002709: 48 89 15 40 3b 00 00         	mov	qword ptr [rip + 0x3b40], rdx # 0x2006250 <buffer.1+0x50>
 2002710: 48 89 05 41 3b 00 00         	mov	qword ptr [rip + 0x3b41], rax # 0x2006258 <buffer.1+0x58>
 2002717: 41 83 f9 06                  	cmp	r9d, 0x6
 200271b: 0f 84 bf 00 00 00            	je	0x20027e0 <vsprintf+0x4e0>
 2002721: 48 89 15 38 3b 00 00         	mov	qword ptr [rip + 0x3b38], rdx # 0x2006260 <buffer.1+0x60>
 2002728: 48 89 05 39 3b 00 00         	mov	qword ptr [rip + 0x3b39], rax # 0x2006268 <buffer.1+0x68>
 200272f: 41 83 f9 07                  	cmp	r9d, 0x7
 2002733: 0f 84 a7 00 00 00            	je	0x20027e0 <vsprintf+0x4e0>
 2002739: 48 89 15 30 3b 00 00         	mov	qword ptr [rip + 0x3b30], rdx # 0x2006270 <buffer.1+0x70>
 2002740: 48 89 05 31 3b 00 00         	mov	qword ptr [rip + 0x3b31], rax # 0x2006278 <buffer.1+0x78>
 2002747: 41 83 f9 08                  	cmp	r9d, 0x8
 200274b: 0f 84 8f 00 00 00            	je	0x20027e0 <vsprintf+0x4e0>
 2002751: 48 89 15 28 3b 00 00         	mov	qword ptr [rip + 0x3b28], rdx # 0x2006280 <buffer.1+0x80>
 2002758: 48 89 05 29 3b 00 00         	mov	qword ptr [rip + 0x3b29], rax # 0x2006288 <buffer.1+0x88>
 200275f: 41 83 f9 09                  	cmp	r9d, 0x9
 2002763: 74 7b                        	je	0x20027e0 <vsprintf+0x4e0>
 2002765: 48 89 15 24 3b 00 00         	mov	qword ptr [rip + 0x3b24], rdx # 0x2006290 <buffer.1+0x90>
 200276c: 48 89 05 25 3b 00 00         	mov	qword ptr [rip + 0x3b25], rax # 0x2006298 <buffer.1+0x98>
 2002773: 41 83 f9 0a                  	cmp	r9d, 0xa
 2002777: 74 67                        	je	0x20027e0 <vsprintf+0x4e0>
 2002779: 48 89 15 20 3b 00 00         	mov	qword ptr [rip + 0x3b20], rdx # 0x20062a0 <buffer.1+0xa0>
 2002780: 48 89 05 21 3b 00 00         	mov	qword ptr [rip + 0x3b21], rax # 0x20062a8 <buffer.1+0xa8>
 2002787: 41 83 f9 0b                  	cmp	r9d, 0xb
 200278b: 74 53                        	je	0x20027e0 <vsprintf+0x4e0>
 200278d: 48 89 15 1c 3b 00 00         	mov	qword ptr [rip + 0x3b1c], rdx # 0x20062b0 <buffer.1+0xb0>
 2002794: 48 89 05 1d 3b 00 00         	mov	qword ptr [rip + 0x3b1d], rax # 0x20062b8 <buffer.1+0xb8>
 200279b: 41 83 f9 0c                  	cmp	r9d, 0xc
 200279f: 74 3f                        	je	0x20027e0 <vsprintf+0x4e0>
 20027a1: 48 89 15 18 3b 00 00         	mov	qword ptr [rip + 0x3b18], rdx # 0x20062c0 <buffer.1+0xc0>
 20027a8: 48 89 05 19 3b 00 00         	mov	qword ptr [rip + 0x3b19], rax # 0x20062c8 <buffer.1+0xc8>
 20027af: 41 83 f9 0d                  	cmp	r9d, 0xd
 20027b3: 74 2b                        	je	0x20027e0 <vsprintf+0x4e0>
 20027b5: 48 89 15 14 3b 00 00         	mov	qword ptr [rip + 0x3b14], rdx # 0x20062d0 <buffer.1+0xd0>
 20027bc: 48 89 05 15 3b 00 00         	mov	qword ptr [rip + 0x3b15], rax # 0x20062d8 <buffer.1+0xd8>
 20027c3: 41 83 f9 0f                  	cmp	r9d, 0xf
 20027c7: 75 17                        	jne	0x20027e0 <vsprintf+0x4e0>
 20027c9: 48 89 15 10 3b 00 00         	mov	qword ptr [rip + 0x3b10], rdx # 0x20062e0 <buffer.1+0xe0>
 20027d0: 48 89 05 11 3b 00 00         	mov	qword ptr [rip + 0x3b11], rax # 0x20062e8 <buffer.1+0xe8>
 20027d7: 66 0f 1f 84 00 00 00 00 00   	nop	word ptr [rax + rax]
 20027e0: 44 89 e8                     	mov	eax, r13d
 20027e3: 83 e0 f0                     	and	eax, -0x10
 20027e6: 41 f6 c5 0f                  	test	r13b, 0xf
 20027ea: 0f 84 fd 05 00 00            	je	0x2002ded <vsprintf+0xaed>
 20027f0: 4c 63 c0                     	movsxd	r8, eax
 20027f3: 8d 50 01                     	lea	edx, [rax + 0x1]
 20027f6: 41 88 98 00 62 00 02         	mov	byte ptr [r8 + 0x2006200], bl
 20027fd: 41 39 d5                     	cmp	r13d, edx
 2002800: 0f 8e 0a 01 00 00            	jle	0x2002910 <vsprintf+0x610>
 2002806: 48 63 d2                     	movsxd	rdx, edx
 2002809: 44 8d 40 02                  	lea	r8d, [rax + 0x2]
 200280d: 88 9a 00 62 00 02            	mov	byte ptr [rdx + 0x2006200], bl
 2002813: 45 39 c5                     	cmp	r13d, r8d
 2002816: 0f 8e f4 00 00 00            	jle	0x2002910 <vsprintf+0x610>
 200281c: 49 63 d0                     	movsxd	rdx, r8d
 200281f: 44 8d 48 03                  	lea	r9d, [rax + 0x3]
 2002823: 88 9a 00 62 00 02            	mov	byte ptr [rdx + 0x2006200], bl
 2002829: 45 39 cd                     	cmp	r13d, r9d
 200282c: 0f 8e de 00 00 00            	jle	0x2002910 <vsprintf+0x610>
 2002832: 49 63 d1                     	movsxd	rdx, r9d
 2002835: 44 8d 40 04                  	lea	r8d, [rax + 0x4]
 2002839: 88 9a 00 62 00 02            	mov	byte ptr [rdx + 0x2006200], bl
 200283f: 45 39 c5                     	cmp	r13d, r8d
 2002842: 0f 8e c8 00 00 00            	jle	0x2002910 <vsprintf+0x610>
 2002848: 4d 63 c0                     	movsxd	r8, r8d
 200284b: 8d 50 05                     	lea	edx, [rax + 0x5]
 200284e: 41 88 98 00 62 00 02         	mov	byte ptr [r8 + 0x2006200], bl
 2002855: 41 39 d5                     	cmp	r13d, edx
 2002858: 0f 8e b2 00 00 00            	jle	0x2002910 <vsprintf+0x610>
 200285e: 48 63 d2                     	movsxd	rdx, edx
 2002861: 44 8d 40 06                  	lea	r8d, [rax + 0x6]
 2002865: 88 9a 00 62 00 02            	mov	byte ptr [rdx + 0x2006200], bl
 200286b: 45 39 c5                     	cmp	r13d, r8d
 200286e: 0f 8e 9c 00 00 00            	jle	0x2002910 <vsprintf+0x610>
 2002874: 4d 63 c0                     	movsxd	r8, r8d
 2002877: 8d 50 07                     	lea	edx, [rax + 0x7]
 200287a: 41 88 98 00 62 00 02         	mov	byte ptr [r8 + 0x2006200], bl
 2002881: 41 39 d5                     	cmp	r13d, edx
 2002884: 0f 8e 86 00 00 00            	jle	0x2002910 <vsprintf+0x610>
 200288a: 48 63 d2                     	movsxd	rdx, edx
 200288d: 44 8d 40 08                  	lea	r8d, [rax + 0x8]
 2002891: 88 9a 00 62 00 02            	mov	byte ptr [rdx + 0x2006200], bl
 2002897: 45 39 c5                     	cmp	r13d, r8d
 200289a: 7e 74                        	jle	0x2002910 <vsprintf+0x610>
 200289c: 4d 63 c0                     	movsxd	r8, r8d
 200289f: 8d 50 09                     	lea	edx, [rax + 0x9]
 20028a2: 41 88 98 00 62 00 02         	mov	byte ptr [r8 + 0x2006200], bl
 20028a9: 41 39 d5                     	cmp	r13d, edx
 20028ac: 7e 62                        	jle	0x2002910 <vsprintf+0x610>
 20028ae: 48 63 d2                     	movsxd	rdx, edx
 20028b1: 44 8d 40 0a                  	lea	r8d, [rax + 0xa]
 20028b5: 88 9a 00 62 00 02            	mov	byte ptr [rdx + 0x2006200], bl
 20028bb: 45 39 c5                     	cmp	r13d, r8d
 20028be: 7e 50                        	jle	0x2002910 <vsprintf+0x610>
 20028c0: 4d 63 c0                     	movsxd	r8, r8d
 20028c3: 8d 50 0b                     	lea	edx, [rax + 0xb]
 20028c6: 41 88 98 00 62 00 02         	mov	byte ptr [r8 + 0x2006200], bl
 20028cd: 41 39 d5                     	cmp	r13d, edx
 20028d0: 7e 3e                        	jle	0x2002910 <vsprintf+0x610>
 20028d2: 48 63 d2                     	movsxd	rdx, edx
 20028d5: 44 8d 40 0c                  	lea	r8d, [rax + 0xc]
 20028d9: 88 9a 00 62 00 02            	mov	byte ptr [rdx + 0x2006200], bl
 20028df: 45 39 c5                     	cmp	r13d, r8d
 20028e2: 7e 2c                        	jle	0x2002910 <vsprintf+0x610>
 20028e4: 4d 63 c0                     	movsxd	r8, r8d
 20028e7: 8d 50 0d                     	lea	edx, [rax + 0xd]
 20028ea: 41 88 98 00 62 00 02         	mov	byte ptr [r8 + 0x2006200], bl
 20028f1: 41 39 d5                     	cmp	r13d, edx
 20028f4: 7e 1a                        	jle	0x2002910 <vsprintf+0x610>
 20028f6: 48 63 d2                     	movsxd	rdx, edx
 20028f9: 83 c0 0e                     	add	eax, 0xe
 20028fc: 88 9a 00 62 00 02            	mov	byte ptr [rdx + 0x2006200], bl
 2002902: 41 39 c5                     	cmp	r13d, eax
 2002905: 7e 09                        	jle	0x2002910 <vsprintf+0x610>
 2002907: 48 98                        	cdqe
 2002909: 88 98 00 62 00 02            	mov	byte ptr [rax + 0x2006200], bl
 200290f: 90                           	nop
 2002910: 45 85 d2                     	test	r10d, r10d
 2002913: 0f 84 f8 00 00 00            	je	0x2002a11 <vsprintf+0x711>
 2002919: 40 0f b6 c7                  	movzx	eax, dil
 200291d: 31 d2                        	xor	edx, edx
 200291f: 4d 63 cd                     	movsxd	r9, r13d
 2002922: 4c 8d 44 04 30               	lea	r8, [rsp + rax + 0x30]
 2002927: eb 23                        	jmp	0x200294c <vsprintf+0x64c>
 2002929: 0f 1f 80 00 00 00 00         	nop	dword ptr [rax]
 2002930: 83 c0 37                     	add	eax, 0x37
 2002933: 41 88 84 11 00 62 00 02      	mov	byte ptr [r9 + rdx + 0x2006200], al
 200293b: 48 83 c2 01                  	add	rdx, 0x1
 200293f: 49 83 e8 01                  	sub	r8, 0x1
 2002943: 41 39 d2                     	cmp	r10d, edx
 2002946: 0f 8e b4 00 00 00            	jle	0x2002a00 <vsprintf+0x700>
 200294c: 41 0f b6 40 ff               	movzx	eax, byte ptr [r8 - 0x1]
 2002951: 3c 09                        	cmp	al, 0x9
 2002953: 77 db                        	ja	0x2002930 <vsprintf+0x630>
 2002955: 83 c0 30                     	add	eax, 0x30
 2002958: eb d9                        	jmp	0x2002933 <vsprintf+0x633>
 200295a: 48 8b 55 08                  	mov	rdx, qword ptr [rbp + 0x8]
 200295e: 48 8d 42 08                  	lea	rax, [rdx + 0x8]
 2002962: 48 89 45 08                  	mov	qword ptr [rbp + 0x8], rax
 2002966: e9 5e fb ff ff               	jmp	0x20024c9 <vsprintf+0x1c9>
 200296b: 48 83 45 08 08               	add	qword ptr [rbp + 0x8], 0x8
 2002970: e9 d7 f9 ff ff               	jmp	0x200234c <vsprintf+0x4c>
 2002975: 41 b9 10 00 00 00            	mov	r9d, 0x10
 200297b: 40 80 ff 78                  	cmp	dil, 0x78
 200297f: 0f 84 b6 fa ff ff            	je	0x200243b <vsprintf+0x13b>
 2002985: 45 31 c9                     	xor	r9d, r9d
 2002988: 40 80 ff 62                  	cmp	dil, 0x62
 200298c: 41 0f 95 c1                  	setne	r9b
 2002990: 4e 8d 0c cd 02 00 00 00      	lea	r9, [8*r9 + 0x2]
 2002998: e9 9e fa ff ff               	jmp	0x200243b <vsprintf+0x13b>
 200299d: 48 8b 55 08                  	mov	rdx, qword ptr [rbp + 0x8]
 20029a1: 48 8d 42 08                  	lea	rax, [rdx + 0x8]
 20029a5: 48 89 45 08                  	mov	qword ptr [rbp + 0x8], rax
 20029a9: e9 ce fa ff ff               	jmp	0x200247c <vsprintf+0x17c>
 20029ae: 48 8b 7d 08                  	mov	rdi, qword ptr [rbp + 0x8]
 20029b2: 48 8d 57 08                  	lea	rdx, [rdi + 0x8]
 20029b6: 48 89 55 08                  	mov	qword ptr [rbp + 0x8], rdx
 20029ba: e9 7d fb ff ff               	jmp	0x200253c <vsprintf+0x23c>
 20029bf: 48 8b 7d 08                  	mov	rdi, qword ptr [rbp + 0x8]
 20029c3: 48 8d 57 08                  	lea	rdx, [rdi + 0x8]
 20029c7: 48 89 55 08                  	mov	qword ptr [rbp + 0x8], rdx
 20029cb: e9 8c fa ff ff               	jmp	0x200245c <vsprintf+0x15c>
 20029d0: 8d 56 01                     	lea	edx, [rsi + 0x1]
 20029d3: 41 c6 00 30                  	mov	byte ptr [r8], 0x30
 20029d7: 83 c6 02                     	add	esi, 0x2
 20029da: 41 b9 02 00 00 00            	mov	r9d, 0x2
 20029e0: 48 63 d2                     	movsxd	rdx, edx
 20029e3: 40 80 ff 78                  	cmp	dil, 0x78
 20029e7: 4c 63 e6                     	movsxd	r12, esi
 20029ea: 41 88 3c 13                  	mov	byte ptr [r11 + rdx], dil
 20029ee: ba 10 00 00 00               	mov	edx, 0x10
 20029f3: 4c 0f 44 ca                  	cmove	r9, rdx
 20029f7: e9 3f fa ff ff               	jmp	0x200243b <vsprintf+0x13b>
 20029fc: 0f 1f 40 00                  	nop	dword ptr [rax]
 2002a00: 31 db                        	xor	ebx, ebx
 2002a02: 41 8d 42 ff                  	lea	eax, [r10 - 0x1]
 2002a06: 40 84 ff                     	test	dil, dil
 2002a09: 0f 44 c3                     	cmove	eax, ebx
 2002a0c: 45 8d 6c 05 01               	lea	r13d, [r13 + rax + 0x1]
 2002a11: 49 63 d5                     	movsxd	rdx, r13d
 2002a14: 48 8d 42 ff                  	lea	rax, [rdx - 0x1]
 2002a18: c6 82 00 62 00 02 00         	mov	byte ptr [rdx + 0x2006200], 0x0
 2002a1f: 48 83 f8 0e                  	cmp	rax, 0xe
 2002a23: 0f 86 77 03 00 00            	jbe	0x2002da0 <vsprintf+0xaa0>
 2002a29: 4b 8d 04 23                  	lea	rax, [r11 + r12]
 2002a2d: 48 89 c7                     	mov	rdi, rax
 2002a30: 48 81 ef 01 62 00 02         	sub	rdi, 0x2006201
 2002a37: 48 83 ff 0e                  	cmp	rdi, 0xe
 2002a3b: 0f 86 5f 03 00 00            	jbe	0x2002da0 <vsprintf+0xaa0>
 2002a41: a8 0f                        	test	al, 0xf
 2002a43: 0f 85 57 03 00 00            	jne	0x2002da0 <vsprintf+0xaa0>
 2002a49: 0f 28 05 b0 37 00 00         	movaps	xmm0, xmmword ptr [rip + 0x37b0] # 0x2006200 <buffer.1>
 2002a50: 48 89 d7                     	mov	rdi, rdx
 2002a53: 48 c1 ef 04                  	shr	rdi, 0x4
 2002a57: 0f 29 00                     	movaps	xmmword ptr [rax], xmm0
 2002a5a: 48 83 ff 01                  	cmp	rdi, 0x1
 2002a5e: 0f 84 31 01 00 00            	je	0x2002b95 <vsprintf+0x895>
 2002a64: 0f 28 0d a5 37 00 00         	movaps	xmm1, xmmword ptr [rip + 0x37a5] # 0x2006210 <buffer.1+0x10>
 2002a6b: 0f 29 48 10                  	movaps	xmmword ptr [rax + 0x10], xmm1
 2002a6f: 48 83 ff 02                  	cmp	rdi, 0x2
 2002a73: 0f 84 1c 01 00 00            	je	0x2002b95 <vsprintf+0x895>
 2002a79: 0f 28 15 a0 37 00 00         	movaps	xmm2, xmmword ptr [rip + 0x37a0] # 0x2006220 <buffer.1+0x20>
 2002a80: 0f 29 50 20                  	movaps	xmmword ptr [rax + 0x20], xmm2
 2002a84: 48 83 ff 03                  	cmp	rdi, 0x3
 2002a88: 0f 84 07 01 00 00            	je	0x2002b95 <vsprintf+0x895>
 2002a8e: 0f 28 1d 9b 37 00 00         	movaps	xmm3, xmmword ptr [rip + 0x379b] # 0x2006230 <buffer.1+0x30>
 2002a95: 0f 29 58 30                  	movaps	xmmword ptr [rax + 0x30], xmm3
 2002a99: 48 83 ff 04                  	cmp	rdi, 0x4
 2002a9d: 0f 84 f2 00 00 00            	je	0x2002b95 <vsprintf+0x895>
 2002aa3: 0f 28 25 96 37 00 00         	movaps	xmm4, xmmword ptr [rip + 0x3796] # 0x2006240 <buffer.1+0x40>
 2002aaa: 0f 29 60 40                  	movaps	xmmword ptr [rax + 0x40], xmm4
 2002aae: 48 83 ff 05                  	cmp	rdi, 0x5
 2002ab2: 0f 84 dd 00 00 00            	je	0x2002b95 <vsprintf+0x895>
 2002ab8: 0f 28 2d 91 37 00 00         	movaps	xmm5, xmmword ptr [rip + 0x3791] # 0x2006250 <buffer.1+0x50>
 2002abf: 0f 29 68 50                  	movaps	xmmword ptr [rax + 0x50], xmm5
 2002ac3: 48 83 ff 06                  	cmp	rdi, 0x6
 2002ac7: 0f 84 c8 00 00 00            	je	0x2002b95 <vsprintf+0x895>
 2002acd: 0f 28 35 8c 37 00 00         	movaps	xmm6, xmmword ptr [rip + 0x378c] # 0x2006260 <buffer.1+0x60>
 2002ad4: 0f 29 70 60                  	movaps	xmmword ptr [rax + 0x60], xmm6
 2002ad8: 48 83 ff 07                  	cmp	rdi, 0x7
 2002adc: 0f 84 b3 00 00 00            	je	0x2002b95 <vsprintf+0x895>
 2002ae2: 0f 28 3d 87 37 00 00         	movaps	xmm7, xmmword ptr [rip + 0x3787] # 0x2006270 <buffer.1+0x70>
 2002ae9: 0f 29 78 70                  	movaps	xmmword ptr [rax + 0x70], xmm7
 2002aed: 48 83 ff 08                  	cmp	rdi, 0x8
 2002af1: 0f 84 9e 00 00 00            	je	0x2002b95 <vsprintf+0x895>
 2002af7: 0f 28 3d 82 37 00 00         	movaps	xmm7, xmmword ptr [rip + 0x3782] # 0x2006280 <buffer.1+0x80>
 2002afe: 0f 29 b8 80 00 00 00         	movaps	xmmword ptr [rax + 0x80], xmm7
 2002b05: 48 83 ff 09                  	cmp	rdi, 0x9
 2002b09: 0f 84 86 00 00 00            	je	0x2002b95 <vsprintf+0x895>
 2002b0f: 0f 28 2d 7a 37 00 00         	movaps	xmm5, xmmword ptr [rip + 0x377a] # 0x2006290 <buffer.1+0x90>
 2002b16: 0f 29 a8 90 00 00 00         	movaps	xmmword ptr [rax + 0x90], xmm5
 2002b1d: 48 83 ff 0a                  	cmp	rdi, 0xa
 2002b21: 74 72                        	je	0x2002b95 <vsprintf+0x895>
 2002b23: 0f 28 35 76 37 00 00         	movaps	xmm6, xmmword ptr [rip + 0x3776] # 0x20062a0 <buffer.1+0xa0>
 2002b2a: 0f 29 b0 a0 00 00 00         	movaps	xmmword ptr [rax + 0xa0], xmm6
 2002b31: 48 83 ff 0b                  	cmp	rdi, 0xb
 2002b35: 74 5e                        	je	0x2002b95 <vsprintf+0x895>
 2002b37: 0f 28 3d 72 37 00 00         	movaps	xmm7, xmmword ptr [rip + 0x3772] # 0x20062b0 <buffer.1+0xb0>
 2002b3e: 0f 29 b8 b0 00 00 00         	movaps	xmmword ptr [rax + 0xb0], xmm7
 2002b45: 48 83 ff 0c                  	cmp	rdi, 0xc
 2002b49: 74 4a                        	je	0x2002b95 <vsprintf+0x895>
 2002b4b: 0f 28 25 6e 37 00 00         	movaps	xmm4, xmmword ptr [rip + 0x376e] # 0x20062c0 <buffer.1+0xc0>
 2002b52: 0f 29 a0 c0 00 00 00         	movaps	xmmword ptr [rax + 0xc0], xmm4
 2002b59: 48 83 ff 0d                  	cmp	rdi, 0xd
 2002b5d: 74 36                        	je	0x2002b95 <vsprintf+0x895>
 2002b5f: 0f 28 2d 6a 37 00 00         	movaps	xmm5, xmmword ptr [rip + 0x376a] # 0x20062d0 <buffer.1+0xd0>
 2002b66: 0f 29 a8 d0 00 00 00         	movaps	xmmword ptr [rax + 0xd0], xmm5
 2002b6d: 48 83 ff 0e                  	cmp	rdi, 0xe
 2002b71: 74 22                        	je	0x2002b95 <vsprintf+0x895>
 2002b73: 0f 28 35 66 37 00 00         	movaps	xmm6, xmmword ptr [rip + 0x3766] # 0x20062e0 <buffer.1+0xe0>
 2002b7a: 0f 29 b0 e0 00 00 00         	movaps	xmmword ptr [rax + 0xe0], xmm6
 2002b81: 48 83 ff 0f                  	cmp	rdi, 0xf
 2002b85: 74 0e                        	je	0x2002b95 <vsprintf+0x895>
 2002b87: 0f 28 3d 62 37 00 00         	movaps	xmm7, xmmword ptr [rip + 0x3762] # 0x20062f0 <buffer.1+0xf0>
 2002b8e: 0f 29 b8 f0 00 00 00         	movaps	xmmword ptr [rax + 0xf0], xmm7
 2002b95: 48 89 d0                     	mov	rax, rdx
 2002b98: 48 83 e0 f0                  	and	rax, -0x10
 2002b9c: 8d 3c 06                     	lea	edi, [rsi + rax]
 2002b9f: f6 c2 0f                     	test	dl, 0xf
 2002ba2: 0f 84 e5 01 00 00            	je	0x2002d8d <vsprintf+0xa8d>
 2002ba8: 44 0f b6 90 00 62 00 02      	movzx	r10d, byte ptr [rax + 0x2006200]
 2002bb0: 4c 63 c7                     	movsxd	r8, edi
 2002bb3: 44 8d 4f 01                  	lea	r9d, [rdi + 0x1]
 2002bb7: 47 88 14 03                  	mov	byte ptr [r11 + r8], r10b
 2002bbb: 44 8d 40 01                  	lea	r8d, [rax + 0x1]
 2002bbf: 4d 63 c0                     	movsxd	r8, r8d
 2002bc2: 49 39 d0                     	cmp	r8, rdx
 2002bc5: 0f 83 c2 01 00 00            	jae	0x2002d8d <vsprintf+0xa8d>
 2002bcb: 45 0f b6 80 00 62 00 02      	movzx	r8d, byte ptr [r8 + 0x2006200]
 2002bd3: 4d 63 c9                     	movsxd	r9, r9d
 2002bd6: 44 8d 57 02                  	lea	r10d, [rdi + 0x2]
 2002bda: 47 88 04 0b                  	mov	byte ptr [r11 + r9], r8b
 2002bde: 44 8d 40 02                  	lea	r8d, [rax + 0x2]
 2002be2: 4d 63 c0                     	movsxd	r8, r8d
 2002be5: 49 39 d0                     	cmp	r8, rdx
 2002be8: 0f 83 9f 01 00 00            	jae	0x2002d8d <vsprintf+0xa8d>
 2002bee: 45 0f b6 80 00 62 00 02      	movzx	r8d, byte ptr [r8 + 0x2006200]
 2002bf6: 4d 63 d2                     	movsxd	r10, r10d
 2002bf9: 44 8d 4f 03                  	lea	r9d, [rdi + 0x3]
 2002bfd: 47 88 04 13                  	mov	byte ptr [r11 + r10], r8b
 2002c01: 44 8d 40 03                  	lea	r8d, [rax + 0x3]
 2002c05: 4d 63 c0                     	movsxd	r8, r8d
 2002c08: 49 39 d0                     	cmp	r8, rdx
 2002c0b: 0f 83 7c 01 00 00            	jae	0x2002d8d <vsprintf+0xa8d>
 2002c11: 45 0f b6 80 00 62 00 02      	movzx	r8d, byte ptr [r8 + 0x2006200]
 2002c19: 4d 63 c9                     	movsxd	r9, r9d
 2002c1c: 44 8d 57 04                  	lea	r10d, [rdi + 0x4]
 2002c20: 47 88 04 0b                  	mov	byte ptr [r11 + r9], r8b
 2002c24: 44 8d 40 04                  	lea	r8d, [rax + 0x4]
 2002c28: 4d 63 c0                     	movsxd	r8, r8d
 2002c2b: 49 39 d0                     	cmp	r8, rdx
 2002c2e: 0f 83 59 01 00 00            	jae	0x2002d8d <vsprintf+0xa8d>
 2002c34: 45 0f b6 80 00 62 00 02      	movzx	r8d, byte ptr [r8 + 0x2006200]
 2002c3c: 4d 63 d2                     	movsxd	r10, r10d
 2002c3f: 44 8d 4f 05                  	lea	r9d, [rdi + 0x5]
 2002c43: 47 88 04 13                  	mov	byte ptr [r11 + r10], r8b
 2002c47: 44 8d 40 05                  	lea	r8d, [rax + 0x5]
 2002c4b: 4d 63 c0                     	movsxd	r8, r8d
 2002c4e: 49 39 d0                     	cmp	r8, rdx
 2002c51: 0f 83 36 01 00 00            	jae	0x2002d8d <vsprintf+0xa8d>
 2002c57: 45 0f b6 80 00 62 00 02      	movzx	r8d, byte ptr [r8 + 0x2006200]
 2002c5f: 4d 63 c9                     	movsxd	r9, r9d
 2002c62: 44 8d 57 06                  	lea	r10d, [rdi + 0x6]
 2002c66: 47 88 04 0b                  	mov	byte ptr [r11 + r9], r8b
 2002c6a: 44 8d 40 06                  	lea	r8d, [rax + 0x6]
 2002c6e: 4d 63 c0                     	movsxd	r8, r8d
 2002c71: 49 39 d0                     	cmp	r8, rdx
 2002c74: 0f 83 13 01 00 00            	jae	0x2002d8d <vsprintf+0xa8d>
 2002c7a: 45 0f b6 80 00 62 00 02      	movzx	r8d, byte ptr [r8 + 0x2006200]
 2002c82: 4d 63 d2                     	movsxd	r10, r10d
 2002c85: 44 8d 4f 07                  	lea	r9d, [rdi + 0x7]
 2002c89: 47 88 04 13                  	mov	byte ptr [r11 + r10], r8b
 2002c8d: 44 8d 40 07                  	lea	r8d, [rax + 0x7]
 2002c91: 4d 63 c0                     	movsxd	r8, r8d
 2002c94: 49 39 d0                     	cmp	r8, rdx
 2002c97: 0f 83 f0 00 00 00            	jae	0x2002d8d <vsprintf+0xa8d>
 2002c9d: 45 0f b6 80 00 62 00 02      	movzx	r8d, byte ptr [r8 + 0x2006200]
 2002ca5: 4d 63 c9                     	movsxd	r9, r9d
 2002ca8: 44 8d 57 08                  	lea	r10d, [rdi + 0x8]
 2002cac: 47 88 04 0b                  	mov	byte ptr [r11 + r9], r8b
 2002cb0: 44 8d 40 08                  	lea	r8d, [rax + 0x8]
 2002cb4: 4d 63 c0                     	movsxd	r8, r8d
 2002cb7: 49 39 d0                     	cmp	r8, rdx
 2002cba: 0f 83 cd 00 00 00            	jae	0x2002d8d <vsprintf+0xa8d>
 2002cc0: 45 0f b6 80 00 62 00 02      	movzx	r8d, byte ptr [r8 + 0x2006200]
 2002cc8: 4d 63 d2                     	movsxd	r10, r10d
 2002ccb: 44 8d 4f 09                  	lea	r9d, [rdi + 0x9]
 2002ccf: 47 88 04 13                  	mov	byte ptr [r11 + r10], r8b
 2002cd3: 44 8d 40 09                  	lea	r8d, [rax + 0x9]
 2002cd7: 4d 63 c0                     	movsxd	r8, r8d
 2002cda: 49 39 d0                     	cmp	r8, rdx
 2002cdd: 0f 83 aa 00 00 00            	jae	0x2002d8d <vsprintf+0xa8d>
 2002ce3: 45 0f b6 80 00 62 00 02      	movzx	r8d, byte ptr [r8 + 0x2006200]
 2002ceb: 4d 63 c9                     	movsxd	r9, r9d
 2002cee: 44 8d 57 0a                  	lea	r10d, [rdi + 0xa]
 2002cf2: 47 88 04 0b                  	mov	byte ptr [r11 + r9], r8b
 2002cf6: 44 8d 40 0a                  	lea	r8d, [rax + 0xa]
 2002cfa: 4d 63 c0                     	movsxd	r8, r8d
 2002cfd: 49 39 d0                     	cmp	r8, rdx
 2002d00: 0f 83 87 00 00 00            	jae	0x2002d8d <vsprintf+0xa8d>
 2002d06: 45 0f b6 80 00 62 00 02      	movzx	r8d, byte ptr [r8 + 0x2006200]
 2002d0e: 4d 63 d2                     	movsxd	r10, r10d
 2002d11: 44 8d 4f 0b                  	lea	r9d, [rdi + 0xb]
 2002d15: 47 88 04 13                  	mov	byte ptr [r11 + r10], r8b
 2002d19: 44 8d 40 0b                  	lea	r8d, [rax + 0xb]
 2002d1d: 4d 63 c0                     	movsxd	r8, r8d
 2002d20: 49 39 d0                     	cmp	r8, rdx
 2002d23: 73 68                        	jae	0x2002d8d <vsprintf+0xa8d>
 2002d25: 45 0f b6 80 00 62 00 02      	movzx	r8d, byte ptr [r8 + 0x2006200]
 2002d2d: 4d 63 c9                     	movsxd	r9, r9d
 2002d30: 44 8d 57 0c                  	lea	r10d, [rdi + 0xc]
 2002d34: 47 88 04 0b                  	mov	byte ptr [r11 + r9], r8b
 2002d38: 44 8d 40 0c                  	lea	r8d, [rax + 0xc]
 2002d3c: 4d 63 c0                     	movsxd	r8, r8d
 2002d3f: 49 39 d0                     	cmp	r8, rdx
 2002d42: 73 49                        	jae	0x2002d8d <vsprintf+0xa8d>
 2002d44: 45 0f b6 80 00 62 00 02      	movzx	r8d, byte ptr [r8 + 0x2006200]
 2002d4c: 4d 63 d2                     	movsxd	r10, r10d
 2002d4f: 44 8d 4f 0d                  	lea	r9d, [rdi + 0xd]
 2002d53: 47 88 04 13                  	mov	byte ptr [r11 + r10], r8b
 2002d57: 44 8d 40 0d                  	lea	r8d, [rax + 0xd]
 2002d5b: 4d 63 c0                     	movsxd	r8, r8d
 2002d5e: 49 39 d0                     	cmp	r8, rdx
 2002d61: 73 2a                        	jae	0x2002d8d <vsprintf+0xa8d>
 2002d63: 45 0f b6 80 00 62 00 02      	movzx	r8d, byte ptr [r8 + 0x2006200]
 2002d6b: 83 c0 0e                     	add	eax, 0xe
 2002d6e: 4d 63 c9                     	movsxd	r9, r9d
 2002d71: 83 c7 0e                     	add	edi, 0xe
 2002d74: 48 98                        	cdqe
 2002d76: 47 88 04 0b                  	mov	byte ptr [r11 + r9], r8b
 2002d7a: 48 39 d0                     	cmp	rax, rdx
 2002d7d: 73 0e                        	jae	0x2002d8d <vsprintf+0xa8d>
 2002d7f: 0f b6 90 00 62 00 02         	movzx	edx, byte ptr [rax + 0x2006200]
 2002d86: 48 63 c7                     	movsxd	rax, edi
 2002d89: 41 88 14 03                  	mov	byte ptr [r11 + rax], dl
 2002d8d: 44 01 ee                     	add	esi, r13d
 2002d90: 4c 63 e6                     	movsxd	r12, esi
 2002d93: e9 b4 f5 ff ff               	jmp	0x200234c <vsprintf+0x4c>
 2002d98: 0f 1f 84 00 00 00 00 00      	nop	dword ptr [rax + rax]
 2002da0: 31 c0                        	xor	eax, eax
 2002da2: 4d 01 dc                     	add	r12, r11
 2002da5: 0f 1f 00                     	nop	dword ptr [rax]
 2002da8: 0f b6 b8 00 62 00 02         	movzx	edi, byte ptr [rax + 0x2006200]
 2002daf: 41 88 3c 04                  	mov	byte ptr [r12 + rax], dil
 2002db3: 48 83 c0 01                  	add	rax, 0x1
 2002db7: 48 39 c2                     	cmp	rdx, rax
 2002dba: 75 ec                        	jne	0x2002da8 <vsprintf+0xaa8>
 2002dbc: 44 01 ee                     	add	esi, r13d
 2002dbf: 4c 63 e6                     	movsxd	r12, esi
 2002dc2: e9 85 f5 ff ff               	jmp	0x200234c <vsprintf+0x4c>
 2002dc7: 45 31 ed                     	xor	r13d, r13d
 2002dca: 45 85 d2                     	test	r10d, r10d
 2002dcd: 0f 85 46 fb ff ff            	jne	0x2002919 <vsprintf+0x619>
 2002dd3: c6 05 26 34 00 00 00         	mov	byte ptr [rip + 0x3426], 0x0 # 0x2006200 <buffer.1>
 2002dda: e9 6d f5 ff ff               	jmp	0x200234c <vsprintf+0x4c>
 2002ddf: 31 c0                        	xor	eax, eax
 2002de1: e9 0a fa ff ff               	jmp	0x20027f0 <vsprintf+0x4f0>
 2002de6: 31 f6                        	xor	esi, esi
 2002de8: e9 af f6 ff ff               	jmp	0x200249c <vsprintf+0x19c>
 2002ded: 45 85 d2                     	test	r10d, r10d
 2002df0: 0f 85 23 fb ff ff            	jne	0x2002919 <vsprintf+0x619>
 2002df6: 49 63 d5                     	movsxd	rdx, r13d
 2002df9: c6 82 00 62 00 02 00         	mov	byte ptr [rdx + 0x2006200], 0x0
 2002e00: e9 24 fc ff ff               	jmp	0x2002a29 <vsprintf+0x729>
 2002e05: 66 66 2e 0f 1f 84 00 00 00 00 00     	nop	word ptr cs:[rax + rax]

0000000002002e10 <utostr>:
 2002e10: 41 57                        	push	r15
 2002e12: 49 89 f1                     	mov	r9, rsi
 2002e15: 44 0f b6 da                  	movzx	r11d, dl
 2002e19: 89 ce                        	mov	esi, ecx
 2002e1b: 41 56                        	push	r14
 2002e1d: 31 c9                        	xor	ecx, ecx
 2002e1f: 41 55                        	push	r13
 2002e21: 41 54                        	push	r12
 2002e23: 55                           	push	rbp
 2002e24: 53                           	push	rbx
 2002e25: 44 89 c3                     	mov	ebx, r8d
 2002e28: 48 83 ec 78                  	sub	rsp, 0x78
 2002e2c: 0f 1f 40 00                  	nop	dword ptr [rax]
 2002e30: 4c 89 c8                     	mov	rax, r9
 2002e33: 31 d2                        	xor	edx, edx
 2002e35: 44 0f b6 d1                  	movzx	r10d, cl
 2002e39: 83 c1 01                     	add	ecx, 0x1
 2002e3c: 49 f7 f3                     	div	r11
 2002e3f: 42 88 54 14 30               	mov	byte ptr [rsp + r10 + 0x30], dl
 2002e44: 4c 89 ca                     	mov	rdx, r9
 2002e47: 49 89 c1                     	mov	r9, rax
 2002e4a: 4c 39 da                     	cmp	rdx, r11
 2002e4d: 73 e1                        	jae	0x2002e30 <utostr+0x20>
 2002e4f: 0f b6 e9                     	movzx	ebp, cl
 2002e52: 40 0f b6 f6                  	movzx	esi, sil
 2002e56: 29 ee                        	sub	esi, ebp
 2002e58: 85 f6                        	test	esi, esi
 2002e5a: 0f 8e d0 03 00 00            	jle	0x2003230 <utostr+0x420>
 2002e60: 48 89 fa                     	mov	rdx, rdi
 2002e63: 41 ba 17 00 00 00            	mov	r10d, 0x17
 2002e69: 44 8d 5e ff                  	lea	r11d, [rsi - 0x1]
 2002e6d: 48 f7 da                     	neg	rdx
 2002e70: 41 89 d1                     	mov	r9d, edx
 2002e73: 41 83 e1 0f                  	and	r9d, 0xf
 2002e77: 41 8d 41 0f                  	lea	eax, [r9 + 0xf]
 2002e7b: 44 39 d0                     	cmp	eax, r10d
 2002e7e: 41 0f 42 c2                  	cmovb	eax, r10d
 2002e82: 41 39 c3                     	cmp	r11d, eax
 2002e85: 0f 82 af 03 00 00            	jb	0x200323a <utostr+0x42a>
 2002e8b: 45 85 c9                     	test	r9d, r9d
 2002e8e: 0f 84 e1 03 00 00            	je	0x2003275 <utostr+0x465>
 2002e94: 88 1f                        	mov	byte ptr [rdi], bl
 2002e96: f6 c2 0e                     	test	dl, 0xe
 2002e99: 0f 84 a2 03 00 00            	je	0x2003241 <utostr+0x431>
 2002e9f: 88 5f 01                     	mov	byte ptr [rdi + 0x1], bl
 2002ea2: 41 83 f9 02                  	cmp	r9d, 0x2
 2002ea6: 0f 86 a2 03 00 00            	jbe	0x200324e <utostr+0x43e>
 2002eac: 88 5f 02                     	mov	byte ptr [rdi + 0x2], bl
 2002eaf: f6 c2 0c                     	test	dl, 0xc
 2002eb2: 0f 84 a3 03 00 00            	je	0x200325b <utostr+0x44b>
 2002eb8: 88 5f 03                     	mov	byte ptr [rdi + 0x3], bl
 2002ebb: 41 83 f9 04                  	cmp	r9d, 0x4
 2002ebf: 0f 86 58 03 00 00            	jbe	0x200321d <utostr+0x40d>
 2002ec5: 88 5f 04                     	mov	byte ptr [rdi + 0x4], bl
 2002ec8: 41 83 f9 05                  	cmp	r9d, 0x5
 2002ecc: 0f 84 96 03 00 00            	je	0x2003268 <utostr+0x458>
 2002ed2: 88 5f 05                     	mov	byte ptr [rdi + 0x5], bl
 2002ed5: 41 83 f9 06                  	cmp	r9d, 0x6
 2002ed9: 0f 84 b0 03 00 00            	je	0x200328f <utostr+0x47f>
 2002edf: 83 e2 08                     	and	edx, 0x8
 2002ee2: 88 5f 06                     	mov	byte ptr [rdi + 0x6], bl
 2002ee5: 0f 84 b1 03 00 00            	je	0x200329c <utostr+0x48c>
 2002eeb: 88 5f 07                     	mov	byte ptr [rdi + 0x7], bl
 2002eee: 41 83 f9 08                  	cmp	r9d, 0x8
 2002ef2: 0f 86 b1 03 00 00            	jbe	0x20032a9 <utostr+0x499>
 2002ef8: 88 5f 08                     	mov	byte ptr [rdi + 0x8], bl
 2002efb: 41 83 f9 09                  	cmp	r9d, 0x9
 2002eff: 0f 84 b1 03 00 00            	je	0x20032b6 <utostr+0x4a6>
 2002f05: 88 5f 09                     	mov	byte ptr [rdi + 0x9], bl
 2002f08: 41 83 f9 0a                  	cmp	r9d, 0xa
 2002f0c: 0f 84 b1 03 00 00            	je	0x20032c3 <utostr+0x4b3>
 2002f12: 88 5f 0a                     	mov	byte ptr [rdi + 0xa], bl
 2002f15: 41 83 f9 0b                  	cmp	r9d, 0xb
 2002f19: 0f 84 b1 03 00 00            	je	0x20032d0 <utostr+0x4c0>
 2002f1f: 88 5f 0b                     	mov	byte ptr [rdi + 0xb], bl
 2002f22: 41 83 f9 0c                  	cmp	r9d, 0xc
 2002f26: 0f 84 56 03 00 00            	je	0x2003282 <utostr+0x472>
 2002f2c: 88 5f 0c                     	mov	byte ptr [rdi + 0xc], bl
 2002f2f: 41 83 f9 0d                  	cmp	r9d, 0xd
 2002f33: 0f 84 a4 03 00 00            	je	0x20032dd <utostr+0x4cd>
 2002f39: 88 5f 0d                     	mov	byte ptr [rdi + 0xd], bl
 2002f3c: 41 83 f9 0f                  	cmp	r9d, 0xf
 2002f40: 0f 85 a4 03 00 00            	jne	0x20032ea <utostr+0x4da>
 2002f46: 88 5f 0e                     	mov	byte ptr [rdi + 0xe], bl
 2002f49: c7 44 24 2c 0f 00 00 00      	mov	dword ptr [rsp + 0x2c], 0xf
 2002f51: 0f 1f 80 00 00 00 00         	nop	dword ptr [rax]
 2002f58: 44 0f b6 d3                  	movzx	r10d, bl
 2002f5c: 31 d2                        	xor	edx, edx
 2002f5e: 31 c0                        	xor	eax, eax
 2002f60: 41 89 f5                     	mov	r13d, esi
 2002f63: 4d 89 d6                     	mov	r14, r10
 2002f66: 44 88 c2                     	mov	dl, r8b
 2002f69: 44 88 c0                     	mov	al, r8b
 2002f6c: 4d 89 d7                     	mov	r15, r10
 2002f6f: 49 c1 e6 10                  	shl	r14, 0x10
 2002f73: 88 de                        	mov	dh, bl
 2002f75: 88 dc                        	mov	ah, bl
 2002f77: 49 c1 e7 18                  	shl	r15, 0x18
 2002f7b: 4c 89 34 24                  	mov	qword ptr [rsp], r14
 2002f7f: 48 8b 1c 24                  	mov	rbx, qword ptr [rsp]
 2002f83: 48 25 ff ff 00 ff            	and	rax, -0xff0001
 2002f89: 45 29 cd                     	sub	r13d, r9d
 2002f8c: 48 81 e2 ff ff 00 ff         	and	rdx, -0xff0001
 2002f93: 4c 89 7c 24 08               	mov	qword ptr [rsp + 0x8], r15
 2002f98: 45 89 eb                     	mov	r11d, r13d
 2002f9b: 49 bc ff ff ff 00 ff ff ff ff	movabs	r12, -0xff000001
 2002fa5: 48 09 d8                     	or	rax, rbx
 2002fa8: 4c 09 f2                     	or	rdx, r14
 2002fab: 4d 89 d6                     	mov	r14, r10
 2002fae: 41 c1 eb 04                  	shr	r11d, 0x4
 2002fb2: 48 bb ff ff ff 00 ff ff ff ff	movabs	rbx, -0xff000001
 2002fbc: 4c 21 e2                     	and	rdx, r12
 2002fbf: 4d 89 d4                     	mov	r12, r10
 2002fc2: 49 c1 e6 28                  	shl	r14, 0x28
 2002fc6: 48 21 d8                     	and	rax, rbx
 2002fc9: 48 8b 5c 24 08               	mov	rbx, qword ptr [rsp + 0x8]
 2002fce: 49 c1 e4 20                  	shl	r12, 0x20
 2002fd2: 4c 09 fa                     	or	rdx, r15
 2002fd5: 49 bf ff ff ff ff 00 ff ff ff	movabs	r15, -0xff00000001
 2002fdf: 4c 89 64 24 10               	mov	qword ptr [rsp + 0x10], r12
 2002fe4: 48 09 d8                     	or	rax, rbx
 2002fe7: 4c 21 fa                     	and	rdx, r15
 2002fea: 4c 89 74 24 18               	mov	qword ptr [rsp + 0x18], r14
 2002fef: 48 bb ff ff ff ff 00 ff ff ff	movabs	rbx, -0xff00000001
 2002ff9: 49 bf ff ff ff ff ff 00 ff ff	movabs	r15, -0xff0000000001
 2003003: 48 21 d8                     	and	rax, rbx
 2003006: 4c 09 e2                     	or	rdx, r12
 2003009: 48 8b 5c 24 10               	mov	rbx, qword ptr [rsp + 0x10]
 200300e: 4c 21 fa                     	and	rdx, r15
 2003011: 4d 89 d4                     	mov	r12, r10
 2003014: 49 c1 e2 38                  	shl	r10, 0x38
 2003018: 48 09 d8                     	or	rax, rbx
 200301b: 48 8b 5c 24 18               	mov	rbx, qword ptr [rsp + 0x18]
 2003020: 49 c1 e4 30                  	shl	r12, 0x30
 2003024: 4c 09 f2                     	or	rdx, r14
 2003027: 4c 21 f8                     	and	rax, r15
 200302a: 4c 89 64 24 20               	mov	qword ptr [rsp + 0x20], r12
 200302f: 49 be ff ff ff ff ff ff 00 ff	movabs	r14, -0xff000000000001
 2003039: 48 09 d8                     	or	rax, rbx
 200303c: 4c 21 f2                     	and	rdx, r14
 200303f: 48 8b 5c 24 20               	mov	rbx, qword ptr [rsp + 0x20]
 2003044: 4c 09 e2                     	or	rdx, r12
 2003047: 4c 21 f0                     	and	rax, r14
 200304a: 49 bc ff ff ff ff ff ff ff 00	movabs	r12, 0xffffffffffffff
 2003054: 4c 21 e2                     	and	rdx, r12
 2003057: 48 09 d8                     	or	rax, rbx
 200305a: 4c 09 d2                     	or	rdx, r10
 200305d: 4c 21 e0                     	and	rax, r12
 2003060: 49 01 f9                     	add	r9, rdi
 2003063: 4c 09 d0                     	or	rax, r10
 2003066: 49 89 11                     	mov	qword ptr [r9], rdx
 2003069: 49 89 41 08                  	mov	qword ptr [r9 + 0x8], rax
 200306d: 41 83 fb 01                  	cmp	r11d, 0x1
 2003071: 0f 84 09 01 00 00            	je	0x2003180 <utostr+0x370>
 2003077: 49 89 51 10                  	mov	qword ptr [r9 + 0x10], rdx
 200307b: 49 89 41 18                  	mov	qword ptr [r9 + 0x18], rax
 200307f: 41 83 fb 02                  	cmp	r11d, 0x2
 2003083: 0f 84 f7 00 00 00            	je	0x2003180 <utostr+0x370>
 2003089: 49 89 51 20                  	mov	qword ptr [r9 + 0x20], rdx
 200308d: 49 89 41 28                  	mov	qword ptr [r9 + 0x28], rax
 2003091: 41 83 fb 03                  	cmp	r11d, 0x3
 2003095: 0f 84 e5 00 00 00            	je	0x2003180 <utostr+0x370>
 200309b: 49 89 51 30                  	mov	qword ptr [r9 + 0x30], rdx
 200309f: 49 89 41 38                  	mov	qword ptr [r9 + 0x38], rax
 20030a3: 41 83 fb 04                  	cmp	r11d, 0x4
 20030a7: 0f 84 d3 00 00 00            	je	0x2003180 <utostr+0x370>
 20030ad: 49 89 51 40                  	mov	qword ptr [r9 + 0x40], rdx
 20030b1: 49 89 41 48                  	mov	qword ptr [r9 + 0x48], rax
 20030b5: 41 83 fb 05                  	cmp	r11d, 0x5
 20030b9: 0f 84 c1 00 00 00            	je	0x2003180 <utostr+0x370>
 20030bf: 49 89 51 50                  	mov	qword ptr [r9 + 0x50], rdx
 20030c3: 49 89 41 58                  	mov	qword ptr [r9 + 0x58], rax
 20030c7: 41 83 fb 06                  	cmp	r11d, 0x6
 20030cb: 0f 84 af 00 00 00            	je	0x2003180 <utostr+0x370>
 20030d1: 49 89 51 60                  	mov	qword ptr [r9 + 0x60], rdx
 20030d5: 49 89 41 68                  	mov	qword ptr [r9 + 0x68], rax
 20030d9: 41 83 fb 07                  	cmp	r11d, 0x7
 20030dd: 0f 84 9d 00 00 00            	je	0x2003180 <utostr+0x370>
 20030e3: 49 89 51 70                  	mov	qword ptr [r9 + 0x70], rdx
 20030e7: 49 89 41 78                  	mov	qword ptr [r9 + 0x78], rax
 20030eb: 41 83 fb 08                  	cmp	r11d, 0x8
 20030ef: 0f 84 8b 00 00 00            	je	0x2003180 <utostr+0x370>
 20030f5: 49 89 91 80 00 00 00         	mov	qword ptr [r9 + 0x80], rdx
 20030fc: 49 89 81 88 00 00 00         	mov	qword ptr [r9 + 0x88], rax
 2003103: 41 83 fb 09                  	cmp	r11d, 0x9
 2003107: 74 77                        	je	0x2003180 <utostr+0x370>
 2003109: 49 89 91 90 00 00 00         	mov	qword ptr [r9 + 0x90], rdx
 2003110: 49 89 81 98 00 00 00         	mov	qword ptr [r9 + 0x98], rax
 2003117: 41 83 fb 0a                  	cmp	r11d, 0xa
 200311b: 74 63                        	je	0x2003180 <utostr+0x370>
 200311d: 49 89 91 a0 00 00 00         	mov	qword ptr [r9 + 0xa0], rdx
 2003124: 49 89 81 a8 00 00 00         	mov	qword ptr [r9 + 0xa8], rax
 200312b: 41 83 fb 0b                  	cmp	r11d, 0xb
 200312f: 74 4f                        	je	0x2003180 <utostr+0x370>
 2003131: 49 89 91 b0 00 00 00         	mov	qword ptr [r9 + 0xb0], rdx
 2003138: 49 89 81 b8 00 00 00         	mov	qword ptr [r9 + 0xb8], rax
 200313f: 41 83 fb 0c                  	cmp	r11d, 0xc
 2003143: 74 3b                        	je	0x2003180 <utostr+0x370>
 2003145: 49 89 91 c0 00 00 00         	mov	qword ptr [r9 + 0xc0], rdx
 200314c: 49 89 81 c8 00 00 00         	mov	qword ptr [r9 + 0xc8], rax
 2003153: 41 83 fb 0d                  	cmp	r11d, 0xd
 2003157: 74 27                        	je	0x2003180 <utostr+0x370>
 2003159: 49 89 91 d0 00 00 00         	mov	qword ptr [r9 + 0xd0], rdx
 2003160: 49 89 81 d8 00 00 00         	mov	qword ptr [r9 + 0xd8], rax
 2003167: 41 83 fb 0f                  	cmp	r11d, 0xf
 200316b: 75 13                        	jne	0x2003180 <utostr+0x370>
 200316d: 49 89 91 e0 00 00 00         	mov	qword ptr [r9 + 0xe0], rdx
 2003174: 49 89 81 e8 00 00 00         	mov	qword ptr [r9 + 0xe8], rax
 200317b: 0f 1f 44 00 00               	nop	dword ptr [rax + rax]
 2003180: 44 89 e8                     	mov	eax, r13d
 2003183: 8b 5c 24 2c                  	mov	ebx, dword ptr [rsp + 0x2c]
 2003187: 83 e0 f0                     	and	eax, -0x10
 200318a: 01 d8                        	add	eax, ebx
 200318c: 41 83 e5 0f                  	and	r13d, 0xf
 2003190: 74 12                        	je	0x20031a4 <utostr+0x394>
 2003192: 48 98                        	cdqe
 2003194: 0f 1f 40 00                  	nop	dword ptr [rax]
 2003198: 44 88 04 07                  	mov	byte ptr [rdi + rax], r8b
 200319c: 48 83 c0 01                  	add	rax, 0x1
 20031a0: 39 c6                        	cmp	esi, eax
 20031a2: 7f f4                        	jg	0x2003198 <utostr+0x388>
 20031a4: 48 63 c6                     	movsxd	rax, esi
 20031a7: 48 01 f8                     	add	rax, rdi
 20031aa: 85 ed                        	test	ebp, ebp
 20031ac: 74 5b                        	je	0x2003209 <utostr+0x3f9>
 20031ae: 0f b6 c9                     	movzx	ecx, cl
 20031b1: 4c 63 c6                     	movsxd	r8, esi
 20031b4: 8d 45 ff                     	lea	eax, [rbp - 0x1]
 20031b7: 48 8d 54 0c 30               	lea	rdx, [rsp + rcx + 0x30]
 20031bc: 48 8d 4c 0c 2f               	lea	rcx, [rsp + rcx + 0x2f]
 20031c1: 49 01 f8                     	add	r8, rdi
 20031c4: 48 29 c1                     	sub	rcx, rax
 20031c7: eb 1b                        	jmp	0x20031e4 <utostr+0x3d4>
 20031c9: 0f 1f 80 00 00 00 00         	nop	dword ptr [rax]
 20031d0: 83 c0 37                     	add	eax, 0x37
 20031d3: 48 83 ea 01                  	sub	rdx, 0x1
 20031d7: 49 83 c0 01                  	add	r8, 0x1
 20031db: 41 88 40 ff                  	mov	byte ptr [r8 - 0x1], al
 20031df: 48 39 ca                     	cmp	rdx, rcx
 20031e2: 74 1c                        	je	0x2003200 <utostr+0x3f0>
 20031e4: 0f b6 42 ff                  	movzx	eax, byte ptr [rdx - 0x1]
 20031e8: 3c 09                        	cmp	al, 0x9
 20031ea: 77 e4                        	ja	0x20031d0 <utostr+0x3c0>
 20031ec: 83 c0 30                     	add	eax, 0x30
 20031ef: 48 83 ea 01                  	sub	rdx, 0x1
 20031f3: 49 83 c0 01                  	add	r8, 0x1
 20031f7: 41 88 40 ff                  	mov	byte ptr [r8 - 0x1], al
 20031fb: 48 39 ca                     	cmp	rdx, rcx
 20031fe: 75 e4                        	jne	0x20031e4 <utostr+0x3d4>
 2003200: 8d 04 2e                     	lea	eax, [rsi + rbp]
 2003203: 48 89 c6                     	mov	rsi, rax
 2003206: 48 01 f8                     	add	rax, rdi
 2003209: c6 00 00                     	mov	byte ptr [rax], 0x0
 200320c: 48 83 c4 78                  	add	rsp, 0x78
 2003210: 89 f0                        	mov	eax, esi
 2003212: 5b                           	pop	rbx
 2003213: 5d                           	pop	rbp
 2003214: 41 5c                        	pop	r12
 2003216: 41 5d                        	pop	r13
 2003218: 41 5e                        	pop	r14
 200321a: 41 5f                        	pop	r15
 200321c: c3                           	ret
 200321d: c7 44 24 2c 04 00 00 00      	mov	dword ptr [rsp + 0x2c], 0x4
 2003225: e9 2e fd ff ff               	jmp	0x2002f58 <utostr+0x148>
 200322a: 66 0f 1f 44 00 00            	nop	word ptr [rax + rax]
 2003230: 48 89 f8                     	mov	rax, rdi
 2003233: 31 f6                        	xor	esi, esi
 2003235: e9 70 ff ff ff               	jmp	0x20031aa <utostr+0x39a>
 200323a: 31 c0                        	xor	eax, eax
 200323c: e9 51 ff ff ff               	jmp	0x2003192 <utostr+0x382>
 2003241: c7 44 24 2c 01 00 00 00      	mov	dword ptr [rsp + 0x2c], 0x1
 2003249: e9 0a fd ff ff               	jmp	0x2002f58 <utostr+0x148>
 200324e: c7 44 24 2c 02 00 00 00      	mov	dword ptr [rsp + 0x2c], 0x2
 2003256: e9 fd fc ff ff               	jmp	0x2002f58 <utostr+0x148>
 200325b: c7 44 24 2c 03 00 00 00      	mov	dword ptr [rsp + 0x2c], 0x3
 2003263: e9 f0 fc ff ff               	jmp	0x2002f58 <utostr+0x148>
 2003268: c7 44 24 2c 05 00 00 00      	mov	dword ptr [rsp + 0x2c], 0x5
 2003270: e9 e3 fc ff ff               	jmp	0x2002f58 <utostr+0x148>
 2003275: c7 44 24 2c 00 00 00 00      	mov	dword ptr [rsp + 0x2c], 0x0
 200327d: e9 d6 fc ff ff               	jmp	0x2002f58 <utostr+0x148>
 2003282: c7 44 24 2c 0c 00 00 00      	mov	dword ptr [rsp + 0x2c], 0xc
 200328a: e9 c9 fc ff ff               	jmp	0x2002f58 <utostr+0x148>
 200328f: c7 44 24 2c 06 00 00 00      	mov	dword ptr [rsp + 0x2c], 0x6
 2003297: e9 bc fc ff ff               	jmp	0x2002f58 <utostr+0x148>
 200329c: c7 44 24 2c 07 00 00 00      	mov	dword ptr [rsp + 0x2c], 0x7
 20032a4: e9 af fc ff ff               	jmp	0x2002f58 <utostr+0x148>
 20032a9: c7 44 24 2c 08 00 00 00      	mov	dword ptr [rsp + 0x2c], 0x8
 20032b1: e9 a2 fc ff ff               	jmp	0x2002f58 <utostr+0x148>
 20032b6: c7 44 24 2c 09 00 00 00      	mov	dword ptr [rsp + 0x2c], 0x9
 20032be: e9 95 fc ff ff               	jmp	0x2002f58 <utostr+0x148>
 20032c3: c7 44 24 2c 0a 00 00 00      	mov	dword ptr [rsp + 0x2c], 0xa
 20032cb: e9 88 fc ff ff               	jmp	0x2002f58 <utostr+0x148>
 20032d0: c7 44 24 2c 0b 00 00 00      	mov	dword ptr [rsp + 0x2c], 0xb
 20032d8: e9 7b fc ff ff               	jmp	0x2002f58 <utostr+0x148>
 20032dd: c7 44 24 2c 0d 00 00 00      	mov	dword ptr [rsp + 0x2c], 0xd
 20032e5: e9 6e fc ff ff               	jmp	0x2002f58 <utostr+0x148>
 20032ea: c7 44 24 2c 0e 00 00 00      	mov	dword ptr [rsp + 0x2c], 0xe
 20032f2: e9 61 fc ff ff               	jmp	0x2002f58 <utostr+0x148>
 20032f7: 66 0f 1f 84 00 00 00 00 00   	nop	word ptr [rax + rax]

0000000002003300 <sprintf>:
 2003300: 48 81 ec d8 00 00 00         	sub	rsp, 0xd8
 2003307: 48 89 54 24 30               	mov	qword ptr [rsp + 0x30], rdx
 200330c: 48 89 4c 24 38               	mov	qword ptr [rsp + 0x38], rcx
 2003311: 4c 89 44 24 40               	mov	qword ptr [rsp + 0x40], r8
 2003316: 4c 89 4c 24 48               	mov	qword ptr [rsp + 0x48], r9
 200331b: 84 c0                        	test	al, al
 200331d: 74 37                        	je	0x2003356 <sprintf+0x56>
 200331f: 0f 29 44 24 50               	movaps	xmmword ptr [rsp + 0x50], xmm0
 2003324: 0f 29 4c 24 60               	movaps	xmmword ptr [rsp + 0x60], xmm1
 2003329: 0f 29 54 24 70               	movaps	xmmword ptr [rsp + 0x70], xmm2
 200332e: 0f 29 9c 24 80 00 00 00      	movaps	xmmword ptr [rsp + 0x80], xmm3
 2003336: 0f 29 a4 24 90 00 00 00      	movaps	xmmword ptr [rsp + 0x90], xmm4
 200333e: 0f 29 ac 24 a0 00 00 00      	movaps	xmmword ptr [rsp + 0xa0], xmm5
 2003346: 0f 29 b4 24 b0 00 00 00      	movaps	xmmword ptr [rsp + 0xb0], xmm6
 200334e: 0f 29 bc 24 c0 00 00 00      	movaps	xmmword ptr [rsp + 0xc0], xmm7
 2003356: 48 8d 84 24 e0 00 00 00      	lea	rax, [rsp + 0xe0]
 200335e: 48 8d 54 24 08               	lea	rdx, [rsp + 0x8]
 2003363: c7 44 24 08 10 00 00 00      	mov	dword ptr [rsp + 0x8], 0x10
 200336b: 48 89 44 24 10               	mov	qword ptr [rsp + 0x10], rax
 2003370: 48 8d 44 24 20               	lea	rax, [rsp + 0x20]
 2003375: c7 44 24 0c 30 00 00 00      	mov	dword ptr [rsp + 0xc], 0x30
 200337d: 48 89 44 24 18               	mov	qword ptr [rsp + 0x18], rax
 2003382: e8 79 ef ff ff               	call	0x2002300 <vsprintf>
 2003387: 48 81 c4 d8 00 00 00         	add	rsp, 0xd8
 200338e: c3                           	ret
 200338f: 90                           	nop

0000000002003390 <printf>:
 2003390: 48 81 ec d8 00 00 00         	sub	rsp, 0xd8
 2003397: 48 89 74 24 28               	mov	qword ptr [rsp + 0x28], rsi
 200339c: 48 89 54 24 30               	mov	qword ptr [rsp + 0x30], rdx
 20033a1: 48 89 4c 24 38               	mov	qword ptr [rsp + 0x38], rcx
 20033a6: 4c 89 44 24 40               	mov	qword ptr [rsp + 0x40], r8
 20033ab: 4c 89 4c 24 48               	mov	qword ptr [rsp + 0x48], r9
 20033b0: 84 c0                        	test	al, al
 20033b2: 74 37                        	je	0x20033eb <printf+0x5b>
 20033b4: 0f 29 44 24 50               	movaps	xmmword ptr [rsp + 0x50], xmm0
 20033b9: 0f 29 4c 24 60               	movaps	xmmword ptr [rsp + 0x60], xmm1
 20033be: 0f 29 54 24 70               	movaps	xmmword ptr [rsp + 0x70], xmm2
 20033c3: 0f 29 9c 24 80 00 00 00      	movaps	xmmword ptr [rsp + 0x80], xmm3
 20033cb: 0f 29 a4 24 90 00 00 00      	movaps	xmmword ptr [rsp + 0x90], xmm4
 20033d3: 0f 29 ac 24 a0 00 00 00      	movaps	xmmword ptr [rsp + 0xa0], xmm5
 20033db: 0f 29 b4 24 b0 00 00 00      	movaps	xmmword ptr [rsp + 0xb0], xmm6
 20033e3: 0f 29 bc 24 c0 00 00 00      	movaps	xmmword ptr [rsp + 0xc0], xmm7
 20033eb: 48 8d 84 24 e0 00 00 00      	lea	rax, [rsp + 0xe0]
 20033f3: 48 8d 54 24 08               	lea	rdx, [rsp + 0x8]
 20033f8: 48 89 fe                     	mov	rsi, rdi
 20033fb: bf 00 60 00 02               	mov	edi, 0x2006000
 2003400: 48 89 44 24 10               	mov	qword ptr [rsp + 0x10], rax
 2003405: 48 8d 44 24 20               	lea	rax, [rsp + 0x20]
 200340a: c7 44 24 08 08 00 00 00      	mov	dword ptr [rsp + 0x8], 0x8
 2003412: c7 44 24 0c 30 00 00 00      	mov	dword ptr [rsp + 0xc], 0x30
 200341a: 48 89 44 24 18               	mov	qword ptr [rsp + 0x18], rax
 200341f: e8 dc ee ff ff               	call	0x2002300 <vsprintf>
 2003424: be 00 60 00 02               	mov	esi, 0x2006000
 2003429: bf 04 00 00 00               	mov	edi, 0x4
 200342e: 89 c2                        	mov	edx, eax
 2003430: 31 c0                        	xor	eax, eax
 2003432: e8 59 0a 00 00               	call	0x2003e90 <_syscall>
 2003437: 48 81 c4 d8 00 00 00         	add	rsp, 0xd8
 200343e: c3                           	ret
 200343f: 90                           	nop

0000000002003440 <exit>:
 2003440: b8 ff ff ff ff               	mov	eax, 0xffffffff
 2003445: c3                           	ret
 2003446: 66 2e 0f 1f 84 00 00 00 00 00	nop	word ptr cs:[rax + rax]

0000000002003450 <throw00>:
 2003450: 48 83 ec 08                  	sub	rsp, 0x8
 2003454: 31 c0                        	xor	eax, eax
 2003456: e8 15 0a 00 00               	call	0x2003e70 <_throw_00>
 200345b: 31 c0                        	xor	eax, eax
 200345d: 48 83 c4 08                  	add	rsp, 0x8
 2003461: c3                           	ret
 2003462: 66 66 2e 0f 1f 84 00 00 00 00 00     	nop	word ptr cs:[rax + rax]
 200346d: 0f 1f 00                     	nop	dword ptr [rax]

0000000002003470 <throw06>:
 2003470: 48 83 ec 08                  	sub	rsp, 0x8
 2003474: 31 c0                        	xor	eax, eax
 2003476: e8 fe 09 00 00               	call	0x2003e79 <_throw_06>
 200347b: 31 c0                        	xor	eax, eax
 200347d: 48 83 c4 08                  	add	rsp, 0x8
 2003481: c3                           	ret
 2003482: 66 66 2e 0f 1f 84 00 00 00 00 00     	nop	word ptr cs:[rax + rax]
 200348d: 0f 1f 00                     	nop	dword ptr [rax]

0000000002003490 <history>:
 2003490: 8b 05 6a 2e 00 00            	mov	eax, dword ptr [rip + 0x2e6a] # 0x2006300 <historyPointer>
 2003496: 85 c0                        	test	eax, eax
 2003498: 74 46                        	je	0x20034e0 <history+0x50>
 200349a: 55                           	push	rbp
 200349b: bd 20 63 00 02               	mov	ebp, 0x2006320
 20034a0: 53                           	push	rbx
 20034a1: 31 db                        	xor	ebx, ebx
 20034a3: 48 83 ec 08                  	sub	rsp, 0x8
 20034a7: 66 0f 1f 84 00 00 00 00 00   	nop	word ptr [rax + rax]
 20034b0: 48 89 ee                     	mov	rsi, rbp
 20034b3: 31 c0                        	xor	eax, eax
 20034b5: bf 17 43 00 02               	mov	edi, 0x2004317
 20034ba: 83 c3 01                     	add	ebx, 0x1
 20034bd: e8 ce fe ff ff               	call	0x2003390 <printf>
 20034c2: 48 81 c5 00 01 00 00         	add	rbp, 0x100
 20034c9: 3b 1d 31 2e 00 00            	cmp	ebx, dword ptr [rip + 0x2e31] # 0x2006300 <historyPointer>
 20034cf: 72 df                        	jb	0x20034b0 <history+0x20>
 20034d1: 48 83 c4 08                  	add	rsp, 0x8
 20034d5: 31 c0                        	xor	eax, eax
 20034d7: 5b                           	pop	rbx
 20034d8: 5d                           	pop	rbp
 20034d9: c3                           	ret
 20034da: 66 0f 1f 44 00 00            	nop	word ptr [rax + rax]
 20034e0: 31 c0                        	xor	eax, eax
 20034e2: c3                           	ret
 20034e3: 66 66 2e 0f 1f 84 00 00 00 00 00     	nop	word ptr cs:[rax + rax]
 20034ee: 66 90                        	nop

00000000020034f0 <echo>:
 20034f0: 48 83 ec 08                  	sub	rsp, 0x8
 20034f4: 48 89 fe                     	mov	rsi, rdi
 20034f7: 48 85 ff                     	test	rdi, rdi
 20034fa: b8 58 43 00 02               	mov	eax, 0x2004358
 20034ff: 48 0f 44 f0                  	cmove	rsi, rax
 2003503: bf 17 43 00 02               	mov	edi, 0x2004317
 2003508: 31 c0                        	xor	eax, eax
 200350a: e8 81 fe ff ff               	call	0x2003390 <printf>
 200350f: 31 c0                        	xor	eax, eax
 2003511: 48 83 c4 08                  	add	rsp, 0x8
 2003515: c3                           	ret
 2003516: 66 2e 0f 1f 84 00 00 00 00 00	nop	word ptr cs:[rax + rax]

0000000002003520 <help>:
 2003520: 55                           	push	rbp
 2003521: 31 c0                        	xor	eax, eax
 2003523: bf 90 44 00 02               	mov	edi, 0x2004490
 2003528: 53                           	push	rbx
 2003529: 48 83 ec 08                  	sub	rsp, 0x8
 200352d: e8 5e fe ff ff               	call	0x2003390 <printf>
 2003532: 48 83 3d c6 1a 00 00 00      	cmp	qword ptr [rip + 0x1ac6], 0x0 # 0x2005000 <nCommands>
 200353a: 74 30                        	je	0x200356c <help+0x4c>
 200353c: bb 20 50 00 02               	mov	ebx, 0x2005020
 2003541: 31 ed                        	xor	ebp, ebp
 2003543: 0f 1f 44 00 00               	nop	dword ptr [rax + rax]
 2003548: 48 8b 53 08                  	mov	rdx, qword ptr [rbx + 0x8]
 200354c: 48 8b 33                     	mov	rsi, qword ptr [rbx]
 200354f: 31 c0                        	xor	eax, eax
 2003551: bf 00 43 00 02               	mov	edi, 0x2004300
 2003556: 48 83 c5 01                  	add	rbp, 0x1
 200355a: 48 83 c3 18                  	add	rbx, 0x18
 200355e: e8 2d fe ff ff               	call	0x2003390 <printf>
 2003563: 48 3b 2d 96 1a 00 00         	cmp	rbp, qword ptr [rip + 0x1a96] # 0x2005000 <nCommands>
 200356a: 72 dc                        	jb	0x2003548 <help+0x28>
 200356c: bf d0 44 00 02               	mov	edi, 0x20044d0
 2003571: 31 c0                        	xor	eax, eax
 2003573: e8 18 fe ff ff               	call	0x2003390 <printf>
 2003578: 48 83 c4 08                  	add	rsp, 0x8
 200357c: 31 c0                        	xor	eax, eax
 200357e: 5b                           	pop	rbx
 200357f: 5d                           	pop	rbp
 2003580: c3                           	ret
 2003581: 66 66 2e 0f 1f 84 00 00 00 00 00     	nop	word ptr cs:[rax + rax]
 200358c: 0f 1f 40 00                  	nop	dword ptr [rax]

0000000002003590 <status>:
 2003590: 53                           	push	rbx
 2003591: 48 85 ff                     	test	rdi, rdi
 2003594: 74 5a                        	je	0x20035f0 <status+0x60>
 2003596: be 33 43 00 02               	mov	esi, 0x2004333
 200359b: 48 89 fb                     	mov	rbx, rdi
 200359e: e8 2d 06 00 00               	call	0x2003bd0 <strcmp>
 20035a3: 31 f6                        	xor	esi, esi
 20035a5: 85 c0                        	test	eax, eax
 20035a7: 74 2c                        	je	0x20035d5 <status+0x45>
 20035a9: be 51 44 00 02               	mov	esi, 0x2004451
 20035ae: 48 89 df                     	mov	rdi, rbx
 20035b1: e8 1a 06 00 00               	call	0x2003bd0 <strcmp>
 20035b6: 85 c0                        	test	eax, eax
 20035b8: 74 16                        	je	0x20035d0 <status+0x40>
 20035ba: 48 89 de                     	mov	rsi, rbx
 20035bd: bf 10 45 00 02               	mov	edi, 0x2004510
 20035c2: 31 c0                        	xor	eax, eax
 20035c4: e8 c7 fd ff ff               	call	0x2003390 <printf>
 20035c9: b8 02 00 00 00               	mov	eax, 0x2
 20035ce: 5b                           	pop	rbx
 20035cf: c3                           	ret
 20035d0: be 01 00 00 00               	mov	esi, 0x1
 20035d5: bf 41 00 00 00               	mov	edi, 0x41
 20035da: e8 b1 08 00 00               	call	0x2003e90 <_syscall>
 20035df: bf 09 00 00 00               	mov	edi, 0x9
 20035e4: 31 c0                        	xor	eax, eax
 20035e6: e8 a5 08 00 00               	call	0x2003e90 <_syscall>
 20035eb: 31 c0                        	xor	eax, eax
 20035ed: 5b                           	pop	rbx
 20035ee: c3                           	ret
 20035ef: 90                           	nop
 20035f0: bf 1b 43 00 02               	mov	edi, 0x200431b
 20035f5: 31 c0                        	xor	eax, eax
 20035f7: e8 94 fd ff ff               	call	0x2003390 <printf>
 20035fc: b8 01 00 00 00               	mov	eax, 0x1
 2003601: 5b                           	pop	rbx
 2003602: c3                           	ret
 2003603: 66 66 2e 0f 1f 84 00 00 00 00 00     	nop	word ptr cs:[rax + rax]
 200360e: 66 90                        	nop

0000000002003610 <setfont>:
 2003610: 55                           	push	rbp
 2003611: 53                           	push	rbx
 2003612: 48 83 ec 08                  	sub	rsp, 0x8
 2003616: 48 85 ff                     	test	rdi, rdi
 2003619: 0f 84 d1 00 00 00            	je	0x20036f0 <setfont+0xe0>
 200361f: be 37 43 00 02               	mov	esi, 0x2004337
 2003624: 48 89 fd                     	mov	rbp, rdi
 2003627: 31 db                        	xor	ebx, ebx
 2003629: e8 a2 05 00 00               	call	0x2003bd0 <strcmp>
 200362e: 85 c0                        	test	eax, eax
 2003630: 74 5e                        	je	0x2003690 <setfont+0x80>
 2003632: 48 83 3d ee 1a 00 00 00      	cmp	qword ptr [rip + 0x1aee], 0x0 # 0x2005128 <nFonts>
 200363a: 75 19                        	jne	0x2003655 <setfont+0x45>
 200363c: e9 8f 00 00 00               	jmp	0x20036d0 <setfont+0xc0>
 2003641: 0f 1f 80 00 00 00 00         	nop	dword ptr [rax]
 2003648: 48 83 c3 01                  	add	rbx, 0x1
 200364c: 48 3b 1d d5 1a 00 00         	cmp	rbx, qword ptr [rip + 0x1ad5] # 0x2005128 <nFonts>
 2003653: 73 7b                        	jae	0x20036d0 <setfont+0xc0>
 2003655: 48 89 d8                     	mov	rax, rbx
 2003658: 48 89 ef                     	mov	rdi, rbp
 200365b: 48 c1 e0 04                  	shl	rax, 0x4
 200365f: 48 8b b0 40 51 00 02         	mov	rsi, qword ptr [rax + 0x2005140]
 2003666: e8 65 05 00 00               	call	0x2003bd0 <strcmp>
 200366b: 85 c0                        	test	eax, eax
 200366d: 75 d9                        	jne	0x2003648 <setfont+0x38>
 200366f: 48 63 db                     	movsxd	rbx, ebx
 2003672: bf 0a 00 00 00               	mov	edi, 0xa
 2003677: 48 c1 e3 04                  	shl	rbx, 0x4
 200367b: 8b b3 48 51 00 02            	mov	esi, dword ptr [rbx + 0x2005148]
 2003681: e8 0a 08 00 00               	call	0x2003e90 <_syscall>
 2003686: 48 83 c4 08                  	add	rsp, 0x8
 200368a: 31 c0                        	xor	eax, eax
 200368c: 5b                           	pop	rbx
 200368d: 5d                           	pop	rbp
 200368e: c3                           	ret
 200368f: 90                           	nop
 2003690: 48 83 3d 90 1a 00 00 00      	cmp	qword ptr [rip + 0x1a90], 0x0 # 0x2005128 <nFonts>
 2003698: 74 ec                        	je	0x2003686 <setfont+0x76>
 200369a: 66 0f 1f 44 00 00            	nop	word ptr [rax + rax]
 20036a0: 48 89 d8                     	mov	rax, rbx
 20036a3: bf 3a 43 00 02               	mov	edi, 0x200433a
 20036a8: 48 83 c3 01                  	add	rbx, 0x1
 20036ac: 48 c1 e0 04                  	shl	rax, 0x4
 20036b0: 48 8b b0 40 51 00 02         	mov	rsi, qword ptr [rax + 0x2005140]
 20036b7: 31 c0                        	xor	eax, eax
 20036b9: e8 d2 fc ff ff               	call	0x2003390 <printf>
 20036be: 48 3b 1d 63 1a 00 00         	cmp	rbx, qword ptr [rip + 0x1a63] # 0x2005128 <nFonts>
 20036c5: 72 d9                        	jb	0x20036a0 <setfont+0x90>
 20036c7: eb bd                        	jmp	0x2003686 <setfont+0x76>
 20036c9: 0f 1f 80 00 00 00 00         	nop	dword ptr [rax]
 20036d0: 48 89 ee                     	mov	rsi, rbp
 20036d3: bf d0 45 00 02               	mov	edi, 0x20045d0
 20036d8: 31 c0                        	xor	eax, eax
 20036da: e8 b1 fc ff ff               	call	0x2003390 <printf>
 20036df: 48 83 c4 08                  	add	rsp, 0x8
 20036e3: b8 02 00 00 00               	mov	eax, 0x2
 20036e8: 5b                           	pop	rbx
 20036e9: 5d                           	pop	rbp
 20036ea: c3                           	ret
 20036eb: 0f 1f 44 00 00               	nop	dword ptr [rax + rax]
 20036f0: bf 50 45 00 02               	mov	edi, 0x2004550
 20036f5: 31 c0                        	xor	eax, eax
 20036f7: e8 94 fc ff ff               	call	0x2003390 <printf>
 20036fc: 48 83 c4 08                  	add	rsp, 0x8
 2003700: b8 01 00 00 00               	mov	eax, 0x1
 2003705: 5b                           	pop	rbx
 2003706: 5d                           	pop	rbp
 2003707: c3                           	ret
 2003708: 0f 1f 84 00 00 00 00 00      	nop	dword ptr [rax + rax]

0000000002003710 <clear>:
 2003710: 48 83 ec 08                  	sub	rsp, 0x8
 2003714: bf 09 00 00 00               	mov	edi, 0x9
 2003719: 31 c0                        	xor	eax, eax
 200371b: e8 70 07 00 00               	call	0x2003e90 <_syscall>
 2003720: 31 c0                        	xor	eax, eax
 2003722: 48 83 c4 08                  	add	rsp, 0x8
 2003726: c3                           	ret
 2003727: 66 0f 1f 84 00 00 00 00 00   	nop	word ptr [rax + rax]

0000000002003730 <startShell>:
 2003730: 41 57                        	push	r15
 2003732: 41 56                        	push	r14
 2003734: 41 55                        	push	r13
 2003736: 41 54                        	push	r12
 2003738: 55                           	push	rbp
 2003739: 53                           	push	rbx
 200373a: 48 81 ec 18 02 00 00         	sub	rsp, 0x218
 2003741: 0f 1f 80 00 00 00 00         	nop	dword ptr [rax]
 2003748: bf 4c 43 00 02               	mov	edi, 0x200434c
 200374d: 31 c0                        	xor	eax, eax
 200374f: 45 31 e4                     	xor	r12d, r12d
 2003752: 31 ed                        	xor	ebp, ebp
 2003754: e8 37 fc ff ff               	call	0x2003390 <printf>
 2003759: 8b 05 a1 2b 00 00            	mov	eax, dword ptr [rip + 0x2ba1] # 0x2006300 <historyPointer>
 200375f: b9 1f 00 00 00               	mov	ecx, 0x1f
 2003764: 31 db                        	xor	ebx, ebx
 2003766: 48 8d bc 24 18 01 00 00      	lea	rdi, [rsp + 0x118]
 200376e: 48 c7 84 24 10 01 00 00 00 00 00 00  	mov	qword ptr [rsp + 0x110], 0x0
 200377a: 89 44 24 0c                  	mov	dword ptr [rsp + 0xc], eax
 200377e: 31 c0                        	xor	eax, eax
 2003780: f3 48 ab                     	rep		stosq	qword ptr es:[rdi], rax
 2003783: 0f 1f 44 00 00               	nop	dword ptr [rax + rax]
 2003788: ba 00 01 00 00               	mov	edx, 0x100
 200378d: 48 8d b4 24 10 01 00 00      	lea	rsi, [rsp + 0x110]
 2003795: bf 03 00 00 00               	mov	edi, 0x3
 200379a: 31 c0                        	xor	eax, eax
 200379c: e8 ef 06 00 00               	call	0x2003e90 <_syscall>
 20037a1: 41 89 c5                     	mov	r13d, eax
 20037a4: 85 c0                        	test	eax, eax
 20037a6: 74 e0                        	je	0x2003788 <startShell+0x58>
 20037a8: 7e de                        	jle	0x2003788 <startShell+0x58>
 20037aa: 41 89 df                     	mov	r15d, ebx
 20037ad: 45 31 f6                     	xor	r14d, r14d
 20037b0: eb 42                        	jmp	0x20037f4 <startShell+0xc4>
 20037b2: 66 0f 1f 44 00 00            	nop	word ptr [rax + rax]
 20037b8: 3c 08                        	cmp	al, 0x8
 20037ba: 0f 84 10 01 00 00            	je	0x20038d0 <startShell+0x1a0>
 20037c0: 89 de                        	mov	esi, ebx
 20037c2: 83 c3 01                     	add	ebx, 0x1
 20037c5: 88 44 34 10                  	mov	byte ptr [rsp + rsi + 0x10], al
 20037c9: 85 ed                        	test	ebp, ebp
 20037cb: 74 1a                        	je	0x20037e7 <startShell+0xb7>
 20037cd: 83 ed 01                     	sub	ebp, 0x1
 20037d0: bf 0c 00 00 00               	mov	edi, 0xc
 20037d5: 83 fd 01                     	cmp	ebp, 0x1
 20037d8: 19 f6                        	sbb	esi, esi
 20037da: 31 c0                        	xor	eax, eax
 20037dc: 83 e6 fe                     	and	esi, -0x2
 20037df: 83 c6 03                     	add	esi, 0x3
 20037e2: e8 a9 06 00 00               	call	0x2003e90 <_syscall>
 20037e7: 41 83 c6 01                  	add	r14d, 0x1
 20037eb: 45 39 f5                     	cmp	r13d, r14d
 20037ee: 0f 8e ac 00 00 00            	jle	0x20038a0 <startShell+0x170>
 20037f4: 49 63 c6                     	movsxd	rax, r14d
 20037f7: 0f b6 84 04 10 01 00 00      	movzx	eax, byte ptr [rsp + rax + 0x110]
 20037ff: 3c 0a                        	cmp	al, 0xa
 2003801: 0f 84 39 01 00 00            	je	0x2003940 <startShell+0x210>
 2003807: 3c 1b                        	cmp	al, 0x1b
 2003809: 75 ad                        	jne	0x20037b8 <startShell+0x88>
 200380b: 41 8d 46 01                  	lea	eax, [r14 + 0x1]
 200380f: 41 83 c6 02                  	add	r14d, 0x2
 2003813: 48 98                        	cdqe
 2003815: 80 bc 04 10 01 00 00 5b      	cmp	byte ptr [rsp + rax + 0x110], 0x5b
 200381d: 75 c8                        	jne	0x20037e7 <startShell+0xb7>
 200381f: 49 63 c6                     	movsxd	rax, r14d
 2003822: 0f b6 84 04 10 01 00 00      	movzx	eax, byte ptr [rsp + rax + 0x110]
 200382a: 3c 43                        	cmp	al, 0x43
 200382c: 0f 84 8e 02 00 00            	je	0x2003ac0 <startShell+0x390>
 2003832: 0f 8f c8 00 00 00            	jg	0x2003900 <startShell+0x1d0>
 2003838: 3c 41                        	cmp	al, 0x41
 200383a: 0f 84 c0 02 00 00            	je	0x2003b00 <startShell+0x3d0>
 2003840: 3c 42                        	cmp	al, 0x42
 2003842: 75 a3                        	jne	0x20037e7 <startShell+0xb7>
 2003844: 8b 05 b6 2a 00 00            	mov	eax, dword ptr [rip + 0x2ab6] # 0x2006300 <historyPointer>
 200384a: 83 e8 01                     	sub	eax, 0x1
 200384d: 39 44 24 0c                  	cmp	dword ptr [rsp + 0xc], eax
 2003851: 73 94                        	jae	0x20037e7 <startShell+0xb7>
 2003853: 83 44 24 0c 01               	add	dword ptr [rsp + 0xc], 0x1
 2003858: 8b 5c 24 0c                  	mov	ebx, dword ptr [rsp + 0xc]
 200385c: 8b 35 6e 19 00 00            	mov	esi, dword ptr [rip + 0x196e] # 0x20051d0 <promptLength>
 2003862: 31 c0                        	xor	eax, eax
 2003864: 41 83 c6 01                  	add	r14d, 0x1
 2003868: bf 0b 00 00 00               	mov	edi, 0xb
 200386d: 45 31 ff                     	xor	r15d, r15d
 2003870: e8 1b 06 00 00               	call	0x2003e90 <_syscall>
 2003875: 89 de                        	mov	esi, ebx
 2003877: 48 8d 7c 24 10               	lea	rdi, [rsp + 0x10]
 200387c: 48 c1 e6 08                  	shl	rsi, 0x8
 2003880: 48 81 c6 20 63 00 02         	add	rsi, 0x2006320
 2003887: e8 c4 03 00 00               	call	0x2003c50 <strcpy>
 200388c: 89 c3                        	mov	ebx, eax
 200388e: 45 39 f5                     	cmp	r13d, r14d
 2003891: 0f 8f 5d ff ff ff            	jg	0x20037f4 <startShell+0xc4>
 2003897: 66 0f 1f 84 00 00 00 00 00   	nop	word ptr [rax + rax]
 20038a0: 41 39 df                     	cmp	r15d, ebx
 20038a3: 0f 83 df fe ff ff            	jae	0x2003788 <startShell+0x58>
 20038a9: 48 8d 44 24 10               	lea	rax, [rsp + 0x10]
 20038ae: 89 da                        	mov	edx, ebx
 20038b0: 44 89 fe                     	mov	esi, r15d
 20038b3: bf 04 00 00 00               	mov	edi, 0x4
 20038b8: 48 01 c6                     	add	rsi, rax
 20038bb: 44 29 fa                     	sub	edx, r15d
 20038be: 31 c0                        	xor	eax, eax
 20038c0: e8 cb 05 00 00               	call	0x2003e90 <_syscall>
 20038c5: e9 be fe ff ff               	jmp	0x2003788 <startShell+0x58>
 20038ca: 66 0f 1f 44 00 00            	nop	word ptr [rax + rax]
 20038d0: 85 ed                        	test	ebp, ebp
 20038d2: 0f 85 0f ff ff ff            	jne	0x20037e7 <startShell+0xb7>
 20038d8: 43 8d 04 24                  	lea	eax, [r12 + r12]
 20038dc: 44 39 f8                     	cmp	eax, r15d
 20038df: 0f 83 02 ff ff ff            	jae	0x20037e7 <startShell+0xb7>
 20038e5: 89 d8                        	mov	eax, ebx
 20038e7: 41 83 c4 01                  	add	r12d, 0x1
 20038eb: 83 c3 01                     	add	ebx, 0x1
 20038ee: c6 44 04 10 08               	mov	byte ptr [rsp + rax + 0x10], 0x8
 20038f3: e9 ef fe ff ff               	jmp	0x20037e7 <startShell+0xb7>
 20038f8: 0f 1f 84 00 00 00 00 00      	nop	dword ptr [rax + rax]
 2003900: 3c 44                        	cmp	al, 0x44
 2003902: 0f 85 df fe ff ff            	jne	0x20037e7 <startShell+0xb7>
 2003908: 85 db                        	test	ebx, ebx
 200390a: 0f 84 d7 fe ff ff            	je	0x20037e7 <startShell+0xb7>
 2003910: be 03 00 00 00               	mov	esi, 0x3
 2003915: bf 0c 00 00 00               	mov	edi, 0xc
 200391a: 31 c0                        	xor	eax, eax
 200391c: 83 eb 01                     	sub	ebx, 0x1
 200391f: e8 6c 05 00 00               	call	0x2003e90 <_syscall>
 2003924: be ff ff ff ff               	mov	esi, 0xffffffff
 2003929: 31 c0                        	xor	eax, eax
 200392b: 83 c5 01                     	add	ebp, 0x1
 200392e: bf 0d 00 00 00               	mov	edi, 0xd
 2003933: e8 58 05 00 00               	call	0x2003e90 <_syscall>
 2003938: e9 aa fe ff ff               	jmp	0x20037e7 <startShell+0xb7>
 200393d: 0f 1f 00                     	nop	dword ptr [rax]
 2003940: 41 39 df                     	cmp	r15d, ebx
 2003943: 73 23                        	jae	0x2003968 <startShell+0x238>
 2003945: 48 8d 44 24 10               	lea	rax, [rsp + 0x10]
 200394a: 89 da                        	mov	edx, ebx
 200394c: 44 89 fe                     	mov	esi, r15d
 200394f: bf 04 00 00 00               	mov	edi, 0x4
 2003954: 48 01 c6                     	add	rsi, rax
 2003957: 44 29 fa                     	sub	edx, r15d
 200395a: 31 c0                        	xor	eax, eax
 200395c: e8 2f 05 00 00               	call	0x2003e90 <_syscall>
 2003961: 0f 1f 80 00 00 00 00         	nop	dword ptr [rax]
 2003968: 8d 44 1d 00                  	lea	eax, [rbp + rbx]
 200396c: be 0a 00 00 00               	mov	esi, 0xa
 2003971: bf 08 00 00 00               	mov	edi, 0x8
 2003976: c6 44 04 10 00               	mov	byte ptr [rsp + rax + 0x10], 0x0
 200397b: 31 c0                        	xor	eax, eax
 200397d: e8 0e 05 00 00               	call	0x2003e90 <_syscall>
 2003982: be 01 00 00 00               	mov	esi, 0x1
 2003987: bf 0c 00 00 00               	mov	edi, 0xc
 200398c: 31 c0                        	xor	eax, eax
 200398e: e8 fd 04 00 00               	call	0x2003e90 <_syscall>
 2003993: 0f b6 44 24 10               	movzx	eax, byte ptr [rsp + 0x10]
 2003998: 84 c0                        	test	al, al
 200399a: 0f 84 1c 02 00 00            	je	0x2003bbc <startShell+0x48c>
 20039a0: 48 8d 4c 24 11               	lea	rcx, [rsp + 0x11]
 20039a5: 31 d2                        	xor	edx, edx
 20039a7: eb 1d                        	jmp	0x20039c6 <startShell+0x296>
 20039a9: 0f 1f 80 00 00 00 00         	nop	dword ptr [rax]
 20039b0: 48 63 f2                     	movsxd	rsi, edx
 20039b3: 48 83 c1 01                  	add	rcx, 0x1
 20039b7: 83 c2 01                     	add	edx, 0x1
 20039ba: 88 44 34 10                  	mov	byte ptr [rsp + rsi + 0x10], al
 20039be: 0f b6 41 ff                  	movzx	eax, byte ptr [rcx - 0x1]
 20039c2: 84 c0                        	test	al, al
 20039c4: 74 15                        	je	0x20039db <startShell+0x2ab>
 20039c6: 3c 08                        	cmp	al, 0x8
 20039c8: 75 e6                        	jne	0x20039b0 <startShell+0x280>
 20039ca: 83 fa 01                     	cmp	edx, 0x1
 20039cd: 83 d2 ff                     	adc	edx, -0x1
 20039d0: 0f b6 01                     	movzx	eax, byte ptr [rcx]
 20039d3: 48 83 c1 01                  	add	rcx, 0x1
 20039d7: 84 c0                        	test	al, al
 20039d9: 75 eb                        	jne	0x20039c6 <startShell+0x296>
 20039db: 48 63 c2                     	movsxd	rax, edx
 20039de: 48 8d 4c 24 10               	lea	rcx, [rsp + 0x10]
 20039e3: 48 01 c8                     	add	rax, rcx
 20039e6: c6 00 00                     	mov	byte ptr [rax], 0x0
 20039e9: 8b 05 11 29 00 00            	mov	eax, dword ptr [rip + 0x2911] # 0x2006300 <historyPointer>
 20039ef: ba 01 00 00 00               	mov	edx, 0x1
 20039f4: 85 c0                        	test	eax, eax
 20039f6: 0f 85 1a 01 00 00            	jne	0x2003b16 <startShell+0x3e6>
 20039fc: 48 c1 e0 08                  	shl	rax, 0x8
 2003a00: 48 8d 74 24 10               	lea	rsi, [rsp + 0x10]
 2003a05: 89 15 f5 28 00 00            	mov	dword ptr [rip + 0x28f5], edx # 0x2006300 <historyPointer>
 2003a0b: 48 8d b8 20 63 00 02         	lea	rdi, [rax + 0x2006320]
 2003a12: e8 39 02 00 00               	call	0x2003c50 <strcpy>
 2003a17: ba 20 00 00 00               	mov	edx, 0x20
 2003a1c: 48 8d 74 24 10               	lea	rsi, [rsp + 0x10]
 2003a21: 48 8d bc 24 10 01 00 00      	lea	rdi, [rsp + 0x110]
 2003a29: e8 e2 01 00 00               	call	0x2003c10 <strsplit>
 2003a2e: 80 bc 24 10 01 00 00 00      	cmp	byte ptr [rsp + 0x110], 0x0
 2003a36: 49 89 c4                     	mov	r12, rax
 2003a39: 0f 84 09 fd ff ff            	je	0x2003748 <startShell+0x18>
 2003a3f: 31 db                        	xor	ebx, ebx
 2003a41: 48 83 3d b7 15 00 00 00      	cmp	qword ptr [rip + 0x15b7], 0x0 # 0x2005000 <nCommands>
 2003a49: bd 20 50 00 02               	mov	ebp, 0x2005020
 2003a4e: 75 1d                        	jne	0x2003a6d <startShell+0x33d>
 2003a50: e9 12 01 00 00               	jmp	0x2003b67 <startShell+0x437>
 2003a55: 0f 1f 00                     	nop	dword ptr [rax]
 2003a58: 48 83 c3 01                  	add	rbx, 0x1
 2003a5c: 48 83 c5 18                  	add	rbp, 0x18
 2003a60: 48 3b 1d 99 15 00 00         	cmp	rbx, qword ptr [rip + 0x1599] # 0x2005000 <nCommands>
 2003a67: 0f 83 fa 00 00 00            	jae	0x2003b67 <startShell+0x437>
 2003a6d: 48 8b 75 00                  	mov	rsi, qword ptr [rbp]
 2003a71: 48 8d bc 24 10 01 00 00      	lea	rdi, [rsp + 0x110]
 2003a79: e8 52 01 00 00               	call	0x2003bd0 <strcmp>
 2003a7e: 85 c0                        	test	eax, eax
 2003a80: 75 d6                        	jne	0x2003a58 <startShell+0x328>
 2003a82: 48 63 db                     	movsxd	rbx, ebx
 2003a85: 4c 89 e7                     	mov	rdi, r12
 2003a88: 48 8d 04 5b                  	lea	rax, [rbx + 2*rbx]
 2003a8c: ff 14 c5 30 50 00 02         	call	qword ptr [8*rax + 0x2005030]
 2003a93: 3d 01 ff ff ff               	cmp	eax, 0xffffff01
 2003a98: 0f 84 c9 00 00 00            	je	0x2003b67 <startShell+0x437>
 2003a9e: 83 f8 ff                     	cmp	eax, -0x1
 2003aa1: 0f 84 f5 00 00 00            	je	0x2003b9c <startShell+0x46c>
 2003aa7: 85 c0                        	test	eax, eax
 2003aa9: 0f 85 d1 00 00 00            	jne	0x2003b80 <startShell+0x450>
 2003aaf: c7 05 17 17 00 00 02 00 00 00	mov	dword ptr [rip + 0x1717], 0x2 # 0x20051d0 <promptLength>
 2003ab9: e9 8a fc ff ff               	jmp	0x2003748 <startShell+0x18>
 2003abe: 66 90                        	nop
 2003ac0: 85 ed                        	test	ebp, ebp
 2003ac2: 0f 84 1f fd ff ff            	je	0x20037e7 <startShell+0xb7>
 2003ac8: 83 ed 01                     	sub	ebp, 0x1
 2003acb: 83 c3 01                     	add	ebx, 0x1
 2003ace: 41 83 c7 01                  	add	r15d, 0x1
 2003ad2: bf 0c 00 00 00               	mov	edi, 0xc
 2003ad7: 83 fd 01                     	cmp	ebp, 0x1
 2003ada: 19 f6                        	sbb	esi, esi
 2003adc: 31 c0                        	xor	eax, eax
 2003ade: 83 e6 fe                     	and	esi, -0x2
 2003ae1: 83 c6 03                     	add	esi, 0x3
 2003ae4: e8 a7 03 00 00               	call	0x2003e90 <_syscall>
 2003ae9: be 01 00 00 00               	mov	esi, 0x1
 2003aee: bf 0d 00 00 00               	mov	edi, 0xd
 2003af3: 31 c0                        	xor	eax, eax
 2003af5: e8 96 03 00 00               	call	0x2003e90 <_syscall>
 2003afa: e9 e8 fc ff ff               	jmp	0x20037e7 <startShell+0xb7>
 2003aff: 90                           	nop
 2003b00: 8b 44 24 0c                  	mov	eax, dword ptr [rsp + 0xc]
 2003b04: 85 c0                        	test	eax, eax
 2003b06: 0f 84 db fc ff ff            	je	0x20037e7 <startShell+0xb7>
 2003b0c: 83 6c 24 0c 01               	sub	dword ptr [rsp + 0xc], 0x1
 2003b11: e9 42 fd ff ff               	jmp	0x2003858 <startShell+0x128>
 2003b16: 8d 78 ff                     	lea	edi, [rax - 0x1]
 2003b19: 48 8d 74 24 10               	lea	rsi, [rsp + 0x10]
 2003b1e: 48 c1 e7 08                  	shl	rdi, 0x8
 2003b22: 48 81 c7 20 63 00 02         	add	rdi, 0x2006320
 2003b29: e8 a2 00 00 00               	call	0x2003bd0 <strcmp>
 2003b2e: 85 c0                        	test	eax, eax
 2003b30: 0f 84 e1 fe ff ff            	je	0x2003a17 <startShell+0x2e7>
 2003b36: 8b 05 c4 27 00 00            	mov	eax, dword ptr [rip + 0x27c4] # 0x2006300 <historyPointer>
 2003b3c: 83 f8 40                     	cmp	eax, 0x40
 2003b3f: 0f 85 81 00 00 00            	jne	0x2003bc6 <startShell+0x496>
 2003b45: ba 00 3f 00 00               	mov	edx, 0x3f00
 2003b4a: be 20 64 00 02               	mov	esi, 0x2006420
 2003b4f: bf 20 63 00 02               	mov	edi, 0x2006320
 2003b54: e8 37 01 00 00               	call	0x2003c90 <memcpy>
 2003b59: 8b 15 a1 27 00 00            	mov	edx, dword ptr [rip + 0x27a1] # 0x2006300 <historyPointer>
 2003b5f: 8d 42 ff                     	lea	eax, [rdx - 0x1]
 2003b62: e9 95 fe ff ff               	jmp	0x20039fc <startShell+0x2cc>
 2003b67: 48 8d b4 24 10 01 00 00      	lea	rsi, [rsp + 0x110]
 2003b6f: bf 38 46 00 02               	mov	edi, 0x2004638
 2003b74: 31 c0                        	xor	eax, eax
 2003b76: e8 15 f8 ff ff               	call	0x2003390 <printf>
 2003b7b: e9 c8 fb ff ff               	jmp	0x2003748 <startShell+0x18>
 2003b80: 89 c6                        	mov	esi, eax
 2003b82: bf 59 43 00 02               	mov	edi, 0x2004359
 2003b87: 31 c0                        	xor	eax, eax
 2003b89: e8 02 f8 ff ff               	call	0x2003390 <printf>
 2003b8e: 83 c0 02                     	add	eax, 0x2
 2003b91: 89 05 39 16 00 00            	mov	dword ptr [rip + 0x1639], eax # 0x20051d0 <promptLength>
 2003b97: e9 ac fb ff ff               	jmp	0x2003748 <startShell+0x18>
 2003b9c: bf 4f 43 00 02               	mov	edi, 0x200434f
 2003ba1: 31 c0                        	xor	eax, eax
 2003ba3: e8 e8 f7 ff ff               	call	0x2003390 <printf>
 2003ba8: 48 81 c4 18 02 00 00         	add	rsp, 0x218
 2003baf: 31 c0                        	xor	eax, eax
 2003bb1: 5b                           	pop	rbx
 2003bb2: 5d                           	pop	rbp
 2003bb3: 41 5c                        	pop	r12
 2003bb5: 41 5d                        	pop	r13
 2003bb7: 41 5e                        	pop	r14
 2003bb9: 41 5f                        	pop	r15
 2003bbb: c3                           	ret
 2003bbc: 48 8d 44 24 10               	lea	rax, [rsp + 0x10]
 2003bc1: e9 20 fe ff ff               	jmp	0x20039e6 <startShell+0x2b6>
 2003bc6: 8d 50 01                     	lea	edx, [rax + 0x1]
 2003bc9: e9 2e fe ff ff               	jmp	0x20039fc <startShell+0x2cc>
 2003bce: 66 90                        	nop

0000000002003bd0 <strcmp>:
 2003bd0: 0f b6 17                     	movzx	edx, byte ptr [rdi]
 2003bd3: 0f be 0e                     	movsx	ecx, byte ptr [rsi]
 2003bd6: 38 d1                        	cmp	cl, dl
 2003bd8: 75 26                        	jne	0x2003c00 <strcmp+0x30>
 2003bda: b8 01 00 00 00               	mov	eax, 0x1
 2003bdf: eb 18                        	jmp	0x2003bf9 <strcmp+0x29>
 2003be1: 0f 1f 80 00 00 00 00         	nop	dword ptr [rax]
 2003be8: 0f b6 14 07                  	movzx	edx, byte ptr [rdi + rax]
 2003bec: 48 83 c0 01                  	add	rax, 0x1
 2003bf0: 0f be 4c 06 ff               	movsx	ecx, byte ptr [rsi + rax - 0x1]
 2003bf5: 38 ca                        	cmp	dl, cl
 2003bf7: 75 07                        	jne	0x2003c00 <strcmp+0x30>
 2003bf9: 84 d2                        	test	dl, dl
 2003bfb: 75 eb                        	jne	0x2003be8 <strcmp+0x18>
 2003bfd: 31 c0                        	xor	eax, eax
 2003bff: c3                           	ret
 2003c00: 0f be c2                     	movsx	eax, dl
 2003c03: 29 c8                        	sub	eax, ecx
 2003c05: c3                           	ret
 2003c06: 66 2e 0f 1f 84 00 00 00 00 00	nop	word ptr cs:[rax + rax]

0000000002003c10 <strsplit>:
 2003c10: 0f b6 06                     	movzx	eax, byte ptr [rsi]
 2003c13: 89 d1                        	mov	ecx, edx
 2003c15: 38 d0                        	cmp	al, dl
 2003c17: 74 1c                        	je	0x2003c35 <strsplit+0x25>
 2003c19: 84 c0                        	test	al, al
 2003c1b: 75 07                        	jne	0x2003c24 <strsplit+0x14>
 2003c1d: eb 16                        	jmp	0x2003c35 <strsplit+0x25>
 2003c1f: 90                           	nop
 2003c20: 38 c8                        	cmp	al, cl
 2003c22: 74 11                        	je	0x2003c35 <strsplit+0x25>
 2003c24: 48 83 c6 01                  	add	rsi, 0x1
 2003c28: 88 07                        	mov	byte ptr [rdi], al
 2003c2a: 48 83 c7 01                  	add	rdi, 0x1
 2003c2e: 0f b6 06                     	movzx	eax, byte ptr [rsi]
 2003c31: 84 c0                        	test	al, al
 2003c33: 75 eb                        	jne	0x2003c20 <strsplit+0x10>
 2003c35: c6 07 00                     	mov	byte ptr [rdi], 0x0
 2003c38: 31 c0                        	xor	eax, eax
 2003c3a: 80 3e 00                     	cmp	byte ptr [rsi], 0x0
 2003c3d: 74 04                        	je	0x2003c43 <strsplit+0x33>
 2003c3f: 48 8d 46 01                  	lea	rax, [rsi + 0x1]
 2003c43: c3                           	ret
 2003c44: 66 66 2e 0f 1f 84 00 00 00 00 00     	nop	word ptr cs:[rax + rax]
 2003c4f: 90                           	nop

0000000002003c50 <strcpy>:
 2003c50: 0f b6 0e                     	movzx	ecx, byte ptr [rsi]
 2003c53: 84 c9                        	test	cl, cl
 2003c55: 74 29                        	je	0x2003c80 <strcpy+0x30>
 2003c57: ba 01 00 00 00               	mov	edx, 0x1
 2003c5c: 0f 1f 40 00                  	nop	dword ptr [rax]
 2003c60: 48 89 d0                     	mov	rax, rdx
 2003c63: 48 83 c2 01                  	add	rdx, 0x1
 2003c67: 88 0f                        	mov	byte ptr [rdi], cl
 2003c69: 48 83 c7 01                  	add	rdi, 0x1
 2003c6d: 0f b6 4c 16 ff               	movzx	ecx, byte ptr [rsi + rdx - 0x1]
 2003c72: 84 c9                        	test	cl, cl
 2003c74: 75 ea                        	jne	0x2003c60 <strcpy+0x10>
 2003c76: c6 07 00                     	mov	byte ptr [rdi], 0x0
 2003c79: c3                           	ret
 2003c7a: 66 0f 1f 44 00 00            	nop	word ptr [rax + rax]
 2003c80: c6 07 00                     	mov	byte ptr [rdi], 0x0
 2003c83: 31 c0                        	xor	eax, eax
 2003c85: c3                           	ret
 2003c86: 66 2e 0f 1f 84 00 00 00 00 00	nop	word ptr cs:[rax + rax]

0000000002003c90 <memcpy>:
 2003c90: 48 89 f9                     	mov	rcx, rdi
 2003c93: 48 85 d2                     	test	rdx, rdx
 2003c96: 0f 84 6e 01 00 00            	je	0x2003e0a <memcpy+0x17a>
 2003c9c: 48 8d 42 ff                  	lea	rax, [rdx - 0x1]
 2003ca0: 48 83 f8 0e                  	cmp	rax, 0xe
 2003ca4: 0f 86 66 01 00 00            	jbe	0x2003e10 <memcpy+0x180>
 2003caa: 48 89 f8                     	mov	rax, rdi
 2003cad: 48 09 f0                     	or	rax, rsi
 2003cb0: a8 0f                        	test	al, 0xf
 2003cb2: 0f 85 58 01 00 00            	jne	0x2003e10 <memcpy+0x180>
 2003cb8: 48 8d 7e 01                  	lea	rdi, [rsi + 0x1]
 2003cbc: 48 89 c8                     	mov	rax, rcx
 2003cbf: 48 29 f8                     	sub	rax, rdi
 2003cc2: 48 83 f8 0e                  	cmp	rax, 0xe
 2003cc6: 0f 86 44 01 00 00            	jbe	0x2003e10 <memcpy+0x180>
 2003ccc: 48 89 d7                     	mov	rdi, rdx
 2003ccf: 31 c0                        	xor	eax, eax
 2003cd1: 48 83 e7 f0                  	and	rdi, -0x10
 2003cd5: 0f 1f 00                     	nop	dword ptr [rax]
 2003cd8: 0f 28 04 06                  	movaps	xmm0, xmmword ptr [rsi + rax]
 2003cdc: 0f 29 04 01                  	movaps	xmmword ptr [rcx + rax], xmm0
 2003ce0: 48 83 c0 10                  	add	rax, 0x10
 2003ce4: 48 39 f8                     	cmp	rax, rdi
 2003ce7: 75 ef                        	jne	0x2003cd8 <memcpy+0x48>
 2003ce9: 48 89 d0                     	mov	rax, rdx
 2003cec: 48 83 e0 f0                  	and	rax, -0x10
 2003cf0: 48 01 c1                     	add	rcx, rax
 2003cf3: 48 01 c6                     	add	rsi, rax
 2003cf6: f6 c2 0f                     	test	dl, 0xf
 2003cf9: 0f 84 0b 01 00 00            	je	0x2003e0a <memcpy+0x17a>
 2003cff: 0f b6 3e                     	movzx	edi, byte ptr [rsi]
 2003d02: 40 88 39                     	mov	byte ptr [rcx], dil
 2003d05: 48 8d 78 01                  	lea	rdi, [rax + 0x1]
 2003d09: 48 39 d7                     	cmp	rdi, rdx
 2003d0c: 0f 83 f8 00 00 00            	jae	0x2003e0a <memcpy+0x17a>
 2003d12: 0f b6 7e 01                  	movzx	edi, byte ptr [rsi + 0x1]
 2003d16: 40 88 79 01                  	mov	byte ptr [rcx + 0x1], dil
 2003d1a: 48 8d 78 02                  	lea	rdi, [rax + 0x2]
 2003d1e: 48 39 d7                     	cmp	rdi, rdx
 2003d21: 0f 83 e3 00 00 00            	jae	0x2003e0a <memcpy+0x17a>
 2003d27: 0f b6 7e 02                  	movzx	edi, byte ptr [rsi + 0x2]
 2003d2b: 40 88 79 02                  	mov	byte ptr [rcx + 0x2], dil
 2003d2f: 48 8d 78 03                  	lea	rdi, [rax + 0x3]
 2003d33: 48 39 d7                     	cmp	rdi, rdx
 2003d36: 0f 83 ce 00 00 00            	jae	0x2003e0a <memcpy+0x17a>
 2003d3c: 0f b6 7e 03                  	movzx	edi, byte ptr [rsi + 0x3]
 2003d40: 40 88 79 03                  	mov	byte ptr [rcx + 0x3], dil
 2003d44: 48 8d 78 04                  	lea	rdi, [rax + 0x4]
 2003d48: 48 39 d7                     	cmp	rdi, rdx
 2003d4b: 0f 83 b9 00 00 00            	jae	0x2003e0a <memcpy+0x17a>
 2003d51: 0f b6 7e 04                  	movzx	edi, byte ptr [rsi + 0x4]
 2003d55: 40 88 79 04                  	mov	byte ptr [rcx + 0x4], dil
 2003d59: 48 8d 78 05                  	lea	rdi, [rax + 0x5]
 2003d5d: 48 39 d7                     	cmp	rdi, rdx
 2003d60: 0f 83 a4 00 00 00            	jae	0x2003e0a <memcpy+0x17a>
 2003d66: 0f b6 7e 05                  	movzx	edi, byte ptr [rsi + 0x5]
 2003d6a: 40 88 79 05                  	mov	byte ptr [rcx + 0x5], dil
 2003d6e: 48 8d 78 06                  	lea	rdi, [rax + 0x6]
 2003d72: 48 39 d7                     	cmp	rdi, rdx
 2003d75: 0f 83 8f 00 00 00            	jae	0x2003e0a <memcpy+0x17a>
 2003d7b: 0f b6 7e 06                  	movzx	edi, byte ptr [rsi + 0x6]
 2003d7f: 40 88 79 06                  	mov	byte ptr [rcx + 0x6], dil
 2003d83: 48 8d 78 07                  	lea	rdi, [rax + 0x7]
 2003d87: 48 39 d7                     	cmp	rdi, rdx
 2003d8a: 73 7e                        	jae	0x2003e0a <memcpy+0x17a>
 2003d8c: 0f b6 7e 07                  	movzx	edi, byte ptr [rsi + 0x7]
 2003d90: 40 88 79 07                  	mov	byte ptr [rcx + 0x7], dil
 2003d94: 48 8d 78 08                  	lea	rdi, [rax + 0x8]
 2003d98: 48 39 d7                     	cmp	rdi, rdx
 2003d9b: 73 6d                        	jae	0x2003e0a <memcpy+0x17a>
 2003d9d: 0f b6 7e 08                  	movzx	edi, byte ptr [rsi + 0x8]
 2003da1: 40 88 79 08                  	mov	byte ptr [rcx + 0x8], dil
 2003da5: 48 8d 78 09                  	lea	rdi, [rax + 0x9]
 2003da9: 48 39 d7                     	cmp	rdi, rdx
 2003dac: 73 5c                        	jae	0x2003e0a <memcpy+0x17a>
 2003dae: 0f b6 7e 09                  	movzx	edi, byte ptr [rsi + 0x9]
 2003db2: 40 88 79 09                  	mov	byte ptr [rcx + 0x9], dil
 2003db6: 48 8d 78 0a                  	lea	rdi, [rax + 0xa]
 2003dba: 48 39 d7                     	cmp	rdi, rdx
 2003dbd: 73 4b                        	jae	0x2003e0a <memcpy+0x17a>
 2003dbf: 0f b6 7e 0a                  	movzx	edi, byte ptr [rsi + 0xa]
 2003dc3: 40 88 79 0a                  	mov	byte ptr [rcx + 0xa], dil
 2003dc7: 48 8d 78 0b                  	lea	rdi, [rax + 0xb]
 2003dcb: 48 39 d7                     	cmp	rdi, rdx
 2003dce: 73 3a                        	jae	0x2003e0a <memcpy+0x17a>
 2003dd0: 0f b6 7e 0b                  	movzx	edi, byte ptr [rsi + 0xb]
 2003dd4: 40 88 79 0b                  	mov	byte ptr [rcx + 0xb], dil
 2003dd8: 48 8d 78 0c                  	lea	rdi, [rax + 0xc]
 2003ddc: 48 39 d7                     	cmp	rdi, rdx
 2003ddf: 73 29                        	jae	0x2003e0a <memcpy+0x17a>
 2003de1: 0f b6 7e 0c                  	movzx	edi, byte ptr [rsi + 0xc]
 2003de5: 40 88 79 0c                  	mov	byte ptr [rcx + 0xc], dil
 2003de9: 48 8d 78 0d                  	lea	rdi, [rax + 0xd]
 2003ded: 48 39 d7                     	cmp	rdi, rdx
 2003df0: 73 18                        	jae	0x2003e0a <memcpy+0x17a>
 2003df2: 0f b6 7e 0d                  	movzx	edi, byte ptr [rsi + 0xd]
 2003df6: 48 83 c0 0e                  	add	rax, 0xe
 2003dfa: 40 88 79 0d                  	mov	byte ptr [rcx + 0xd], dil
 2003dfe: 48 39 d0                     	cmp	rax, rdx
 2003e01: 73 07                        	jae	0x2003e0a <memcpy+0x17a>
 2003e03: 0f b6 46 0e                  	movzx	eax, byte ptr [rsi + 0xe]
 2003e07: 88 41 0e                     	mov	byte ptr [rcx + 0xe], al
 2003e0a: 31 c0                        	xor	eax, eax
 2003e0c: c3                           	ret
 2003e0d: 0f 1f 00                     	nop	dword ptr [rax]
 2003e10: 31 c0                        	xor	eax, eax
 2003e12: 66 0f 1f 44 00 00            	nop	word ptr [rax + rax]
 2003e18: 0f b6 3c 06                  	movzx	edi, byte ptr [rsi + rax]
 2003e1c: 40 88 3c 01                  	mov	byte ptr [rcx + rax], dil
 2003e20: 48 83 c0 01                  	add	rax, 0x1
 2003e24: 48 39 c2                     	cmp	rdx, rax
 2003e27: 75 ef                        	jne	0x2003e18 <memcpy+0x188>
 2003e29: 31 c0                        	xor	eax, eax
 2003e2b: c3                           	ret
 2003e2c: 0f 1f 40 00                  	nop	dword ptr [rax]

0000000002003e30 <main>:
 2003e30: 48 83 ec 08                  	sub	rsp, 0x8
 2003e34: bf 09 00 00 00               	mov	edi, 0x9
 2003e39: 31 c0                        	xor	eax, eax
 2003e3b: e8 50 00 00 00               	call	0x2003e90 <_syscall>
 2003e40: be 19 47 00 02               	mov	esi, 0x2004719
 2003e45: bf 07 00 00 00               	mov	edi, 0x7
 2003e4a: 31 c0                        	xor	eax, eax
 2003e4c: e8 3f 00 00 00               	call	0x2003e90 <_syscall>
 2003e51: 31 c0                        	xor	eax, eax
 2003e53: e8 d8 f8 ff ff               	call	0x2003730 <startShell>
 2003e58: b8 ef be ad de               	mov	eax, 0xdeadbeef
 2003e5d: 48 83 c4 08                  	add	rsp, 0x8
 2003e61: c3                           	ret
 2003e62: 66 2e 0f 1f 84 00 00 00 00 00	nop	word ptr cs:[rax + rax]
 2003e6c: 0f 1f 40 00                  	nop	dword ptr [rax]

0000000002003e70 <_throw_00>:
 2003e70: b8 00 00 00 00               	mov	eax, 0x0
 2003e75: 48 f7 f0                     	div	rax
 2003e78: c3                           	ret

0000000002003e79 <_throw_06>:
 2003e79: 0f 0b                        	ud2
 2003e7b: c3                           	ret
 2003e7c: 0f 1f 40 00                  	nop	dword ptr [rax]

0000000002003e80 <sqrt>:
 2003e80: f3 0f 51 c0                  	sqrtss	xmm0, xmm0
 2003e84: c3                           	ret
 2003e85: 66 2e 0f 1f 84 00 00 00 00 00	nop	word ptr cs:[rax + rax]
 2003e8f: 90                           	nop

0000000002003e90 <_syscall>:
 2003e90: 48 89 f8                     	mov	rax, rdi
 2003e93: 48 89 f7                     	mov	rdi, rsi
 2003e96: 48 89 d6                     	mov	rsi, rdx
 2003e99: 48 89 ca                     	mov	rdx, rcx
 2003e9c: 4c 89 c1                     	mov	rcx, r8
 2003e9f: 4d 89 c8                     	mov	r8, r9
 2003ea2: cd 80                        	int	0x80
 2003ea4: c3                           	ret

0000000002003ea5 <kbd_pollEvents>:
 2003ea5: b8 10 00 00 00               	mov	eax, 0x10
 2003eaa: cd 80                        	int	0x80
 2003eac: c3                           	ret

0000000002003ead <kbd_keydown>:
 2003ead: b8 11 00 00 00               	mov	eax, 0x11
 2003eb2: cd 80                        	int	0x80
 2003eb4: c3                           	ret

0000000002003eb5 <kbd_keypressed>:
 2003eb5: b8 12 00 00 00               	mov	eax, 0x12
 2003eba: cd 80                        	int	0x80
 2003ebc: c3                           	ret

0000000002003ebd <kbd_keyreleased>:
 2003ebd: b8 13 00 00 00               	mov	eax, 0x13
 2003ec2: cd 80                        	int	0x80
 2003ec4: c3                           	ret

0000000002003ec5 <kbd_getKeyEvent>:
 2003ec5: b8 14 00 00 00               	mov	eax, 0x14
 2003eca: cd 80                        	int	0x80
 2003ecc: c3                           	ret

0000000002003ecd <kbd_getchar>:
 2003ecd: b8 15 00 00 00               	mov	eax, 0x15
 2003ed2: cd 80                        	int	0x80
 2003ed4: c3                           	ret

0000000002003ed5 <vga_clear>:
 2003ed5: b8 20 00 00 00               	mov	eax, 0x20
 2003eda: cd 80                        	int	0x80
 2003edc: c3                           	ret

0000000002003edd <vga_pixel>:
 2003edd: b8 21 00 00 00               	mov	eax, 0x21
 2003ee2: cd 80                        	int	0x80
 2003ee4: c3                           	ret

0000000002003ee5 <vga_line>:
 2003ee5: b8 22 00 00 00               	mov	eax, 0x22
 2003eea: cd 80                        	int	0x80
 2003eec: c3                           	ret

0000000002003eed <vga_rect>:
 2003eed: b8 23 00 00 00               	mov	eax, 0x23
 2003ef2: cd 80                        	int	0x80
 2003ef4: c3                           	ret

0000000002003ef5 <vga_frame>:
 2003ef5: b8 24 00 00 00               	mov	eax, 0x24
 2003efa: cd 80                        	int	0x80
 2003efc: c3                           	ret

0000000002003efd <vga_shade>:
 2003efd: b8 25 00 00 00               	mov	eax, 0x25
 2003f02: cd 80                        	int	0x80
 2003f04: c3                           	ret

0000000002003f05 <vga_gradient>:
 2003f05: b8 26 00 00 00               	mov	eax, 0x26
 2003f0a: cd 80                        	int	0x80
 2003f0c: c3                           	ret

0000000002003f0d <vga_font>:
 2003f0d: b8 27 00 00 00               	mov	eax, 0x27
 2003f12: cd 80                        	int	0x80
 2003f14: c3                           	ret

0000000002003f15 <vga_text>:
 2003f15: b8 28 00 00 00               	mov	eax, 0x28
 2003f1a: cd 80                        	int	0x80
 2003f1c: c3                           	ret

0000000002003f1d <vga_textWrap>:
 2003f1d: b8 29 00 00 00               	mov	eax, 0x29
 2003f22: cd 80                        	int	0x80
 2003f24: c3                           	ret

0000000002003f25 <vga_present>:
 2003f25: b8 2a 00 00 00               	mov	eax, 0x2a
 2003f2a: cd 80                        	int	0x80
 2003f2c: c3                           	ret

0000000002003f2d <vga_setFramebuffer>:
 2003f2d: b8 2b 00 00 00               	mov	eax, 0x2b
 2003f32: cd 80                        	int	0x80
 2003f34: c3                           	ret

0000000002003f35 <vga_copy>:
 2003f35: b8 2c 00 00 00               	mov	eax, 0x2c
 2003f3a: cd 80                        	int	0x80
 2003f3c: c3                           	ret

0000000002003f3d <gfx_clear>:
 2003f3d: b8 a0 00 00 00               	mov	eax, 0xa0
 2003f42: cd 80                        	int	0x80
 2003f44: c3                           	ret

0000000002003f45 <gfx_drawPrimitives>:
 2003f45: b8 a1 00 00 00               	mov	eax, 0xa1
 2003f4a: cd 80                        	int	0x80
 2003f4c: c3                           	ret

0000000002003f4d <gfx_setLight>:
 2003f4d: b8 aa 00 00 00               	mov	eax, 0xaa
 2003f52: cd 80                        	int	0x80
 2003f54: c3                           	ret

0000000002003f55 <gfx_setLightType>:
 2003f55: b8 ab 00 00 00               	mov	eax, 0xab
 2003f5a: cd 80                        	int	0x80
 2003f5c: c3                           	ret

0000000002003f5d <gfx_setMatrix>:
 2003f5d: b8 ac 00 00 00               	mov	eax, 0xac
 2003f62: cd 80                        	int	0x80
 2003f64: c3                           	ret

0000000002003f65 <gfx_present>:
 2003f65: b8 af 00 00 00               	mov	eax, 0xaf
 2003f6a: cd 80                        	int	0x80
 2003f6c: c3                           	ret
 2003f6d: 66 2e 0f 1f 84 00 00 00 00 00	nop	word ptr cs:[rax + rax]
 2003f77: 66 2e 0f 1f 84 00 00 00 00 00	nop	word ptr cs:[rax + rax]
 2003f81: 66 2e 0f 1f 84 00 00 00 00 00	nop	word ptr cs:[rax + rax]
 2003f8b: 66 2e 0f 1f 84 00 00 00 00 00	nop	word ptr cs:[rax + rax]
 2003f95: 66 2e 0f 1f 84 00 00 00 00 00	nop	word ptr cs:[rax + rax]
 2003f9f: 66 2e 0f 1f 84 00 00 00 00 00	nop	word ptr cs:[rax + rax]
 2003fa9: 66 2e 0f 1f 84 00 00 00 00 00	nop	word ptr cs:[rax + rax]
 2003fb3: 66 2e 0f 1f 84 00 00 00 00 00	nop	word ptr cs:[rax + rax]
 2003fbd: 66 2e 0f 1f 84 00 00 00 00 00	nop	word ptr cs:[rax + rax]
 2003fc7: 66 2e 0f 1f 84 00 00 00 00 00	nop	word ptr cs:[rax + rax]
 2003fd1: 66 2e 0f 1f 84 00 00 00 00 00	nop	word ptr cs:[rax + rax]
 2003fdb: 66 2e 0f 1f 84 00 00 00 00 00	nop	word ptr cs:[rax + rax]
 2003fe5: 66 2e 0f 1f 84 00 00 00 00 00	nop	word ptr cs:[rax + rax]
 2003fef: 66 2e 0f 1f 84 00 00 00 00 00	nop	word ptr cs:[rax + rax]
 2003ff9: 0f 1f 80 00 00 00 00         	nop	dword ptr [rax]
 2004000: 46 72 61                     	jb	0x2004064 <gfx_present+0xff>
 2004003: 6d                           	insd	dword ptr es:[rdi], dx
 2004004: 65 74 69                     	je	0x2004070 <gfx_present+0x10b>
 2004007: 6d                           	insd	dword ptr es:[rdi], dx
 2004008: 65 3a 20                     	cmp	ah, byte ptr gs:[rax]
 200400b: 25 6c 6c 75 6d               	and	eax, 0x6d756c6c
 2004010: 73 00                        	jae	0x2004012 <gfx_present+0xad>
 2004012: 66 90                        	nop
 2004014: 00 00                        	add	byte ptr [rax], al
 2004016: a0 40 00 00 c8 42 cd cc cc   	movabs	al, byte ptr [-0x333332bd37ffffc0]
 200401f: 3d 00 00 40 3f               	cmp	eax, 0x3f400000
 2004024: 00 00                        	add	byte ptr [rax], al
 2004026: c0 3f 0f                     	sar	byte ptr [rdi], 0xf
 2004029: 1f                           	<unknown>
 200402a: 84 00                        	test	byte ptr [rax], al
		...
 2004038: 00 00                        	add	byte ptr [rax], al
 200403a: 80 bf 00 00 00 00 00         	cmp	byte ptr [rdi], 0x0
 2004041: 00 80 3f 00 00 80            	add	byte ptr [rax - 0x7fffffc1], al
 2004047: bf 00 00 80 3f               	mov	edi, 0x3f800000
 200404c: 00 00                        	add	byte ptr [rax], al
 200404e: 00 00                        	add	byte ptr [rax], al
 2004050: 00 00                        	add	byte ptr [rax], al
 2004052: 80 bf 00 00 00 00 00         	cmp	byte ptr [rdi], 0x0
 2004059: 00 00                        	add	byte ptr [rax], al
 200405b: 00 00                        	add	byte ptr [rax], al
 200405d: 00 00                        	add	byte ptr [rax], al
 200405f: c0 00 00                     	rol	byte ptr [rax], 0x0
 2004062: 00 00                        	add	byte ptr [rax], al
 2004064: 00 00                        	add	byte ptr [rax], al
 2004066: 80 bf 00 00 00 c0 00         	cmp	byte ptr [rdi - 0x40000000], 0x0
 200406d: 00 80 bf 00 00 00            	add	byte ptr [rax + 0xbf], al
 2004073: 00 00                        	add	byte ptr [rax], al
 2004075: 00 80 3f 83 f9 a2            	add	byte ptr [rax - 0x5d067cc1], al
 200407b: 3f                           	<unknown>
 200407c: 7b 81                        	jnp	0x2003fff <gfx_present+0x9a>
 200407e: cf                           	iretd
 200407f: be 66 66 66 3e               	mov	esi, 0x3e666666
 2004084: 00 00                        	add	byte ptr [rax], al
 2004086: 00 3f                        	add	byte ptr [rdi], bh
 2004088: 6f                           	outsd	dx, dword ptr [rsi]
 2004089: 12 83 3a 0f 1f 40            	adc	al, byte ptr [rbx + 0x401f0f3a]
 200408f: 00 00                        	add	byte ptr [rax], al
 2004091: 00 00                        	add	byte ptr [rax], al
 2004093: 80 00 00                     	add	byte ptr [rax], 0x0
		...
 20040a2: 80 3f 00                     	cmp	byte ptr [rdi], 0x0
		...
 20040b9: 00 80 3f 00 00 00            	add	byte ptr [rax + 0x3f], al
 20040bf: 00 00                        	add	byte ptr [rax], al
 20040c1: 00 00                        	add	byte ptr [rax], al
 20040c3: 00 00                        	add	byte ptr [rax], al
 20040c5: 00 80 3f 00 00 00            	add	byte ptr [rax + 0x3f], al
		...
 20040db: 00 00                        	add	byte ptr [rax], al
 20040dd: 00 80 3f 18 2d 44            	add	byte ptr [rax + 0x442d183f], al
 20040e3: 54                           	push	rsp
 20040e4: fb                           	sti
 20040e5: 21 f9                        	and	ecx, edi
 20040e7: 3f                           	<unknown>
 20040e8: 18 2d 44 54 fb 21            	sbb	byte ptr [rip + 0x21fb5444], ch # 0x23fb9532 <endOfBinary+0x21faf212>
 20040ee: 09 40 18                     	or	dword ptr [rax + 0x18], eax
 20040f1: 2d 44 54 fb 21               	sub	eax, 0x21fb5444
 20040f6: 19 40 54                     	sbb	dword ptr [rax + 0x54], eax
 20040f9: 68 69 73 20 69               	push	0x69207369
 20040fe: 73 20                        	jae	0x2004120 <gfx_present+0x1bb>
 2004100: 73 6f                        	jae	0x2004171 <gfx_present+0x20c>
 2004102: 6d                           	insd	dword ptr es:[rdi], dx
 2004103: 65 20 74 65 78               	and	byte ptr gs:[rbp + 2*riz + 0x78], dh
 2004108: 74 0a                        	je	0x2004114 <gfx_present+0x1af>
 200410a: 69 6e 20 6d 75 6c 74         	imul	ebp, dword ptr [rsi + 0x20], 0x746c756d
 2004111: 69 70 6c 65 20 6c 69         	imul	esi, dword ptr [rax + 0x6c], 0x696c2065
 2004118: 6e                           	outsb	dx, byte ptr [rsi]
 2004119: 65 73 21                     	jae	0x200413d <gfx_present+0x1d8>
 200411c: 00 00                        	add	byte ptr [rax], al
 200411e: 00 00                        	add	byte ptr [rax], al
 2004120: 54                           	push	rsp
 2004121: 68 69 73 09 74               	push	0x74097369
 2004126: 65 78 74                     	js	0x200419d <gfx_present+0x238>
 2004129: 09 68 61                     	or	dword ptr [rax + 0x61], ebp
 200412c: 73 09                        	jae	0x2004137 <gfx_present+0x1d2>
 200412e: 74 61                        	je	0x2004191 <gfx_present+0x22c>
 2004130: 62 09 73 74 6f               	<unknown>
 2004135: 70 73                        	jo	0x20041aa <gfx_present+0x245>
 2004137: 0a 7c 09 7c                  	or	bh, byte ptr [rcx + rcx + 0x7c]
 200413b: 09 7c 09 7c                  	or	dword ptr [rcx + rcx + 0x7c], edi
 200413f: 09 7c 00 00                  	or	dword ptr [rax + rax], edi
 2004143: 00 00                        	add	byte ptr [rax], al
 2004145: 00 00                        	add	byte ptr [rax], al
 2004147: 00 4c 6f 72                  	add	byte ptr [rdi + 2*rbp + 0x72], cl
 200414b: 65 6d                        	insd	dword ptr es:[rdi], dx
 200414d: 20 69 70                     	and	byte ptr [rcx + 0x70], ch
 2004150: 73 75                        	jae	0x20041c7 <gfx_present+0x262>
 2004152: 6d                           	insd	dword ptr es:[rdi], dx
 2004153: 20 64 6f 6c                  	and	byte ptr [rdi + 2*rbp + 0x6c], ah
 2004157: 6f                           	outsd	dx, dword ptr [rsi]
 2004158: 72 20                        	jb	0x200417a <gfx_present+0x215>
 200415a: 73 69                        	jae	0x20041c5 <gfx_present+0x260>
 200415c: 74 20                        	je	0x200417e <gfx_present+0x219>
 200415e: 61                           	<unknown>
 200415f: 6d                           	insd	dword ptr es:[rdi], dx
 2004160: 65 74 2c                     	je	0x200418f <gfx_present+0x22a>
 2004163: 20 63 6f                     	and	byte ptr [rbx + 0x6f], ah
 2004166: 6e                           	outsb	dx, byte ptr [rsi]
 2004167: 73 65                        	jae	0x20041ce <gfx_present+0x269>
 2004169: 63 74 65 74                  	movsxd	esi, dword ptr [rbp + 2*riz + 0x74]
 200416d: 75 72                        	jne	0x20041e1 <gfx_present+0x27c>
 200416f: 20 61 64                     	and	byte ptr [rcx + 0x64], ah
 2004172: 69 70 69 73 63 69 6e         	imul	esi, dword ptr [rax + 0x69], 0x6e696373
 2004179: 67 20 65 6c                  	and	byte ptr [ebp + 0x6c], ah
 200417d: 69 74 2c 20 73 65 64 20      	imul	esi, dword ptr [rsp + rbp + 0x20], 0x20646573
 2004185: 64 6f                        	outsd	dx, dword ptr fs:[rsi]
 2004187: 20 65 69                     	and	byte ptr [rbp + 0x69], ah
 200418a: 75 73                        	jne	0x20041ff <gfx_present+0x29a>
 200418c: 6d                           	insd	dword ptr es:[rdi], dx
 200418d: 6f                           	outsd	dx, dword ptr [rsi]
 200418e: 64 20 74 65 6d               	and	byte ptr fs:[rbp + 2*riz + 0x6d], dh
 2004193: 70 6f                        	jo	0x2004204 <gfx_present+0x29f>
 2004195: 72 20                        	jb	0x20041b7 <gfx_present+0x252>
 2004197: 69 6e 63 69 64 69 64         	imul	ebp, dword ptr [rsi + 0x63], 0x64696469
 200419e: 75 6e                        	jne	0x200420e <gfx_present+0x2a9>
 20041a0: 74 20                        	je	0x20041c2 <gfx_present+0x25d>
 20041a2: 75 74                        	jne	0x2004218 <gfx_present+0x2b3>
 20041a4: 20 6c 61 62                  	and	byte ptr [rcx + 2*riz + 0x62], ch
 20041a8: 6f                           	outsd	dx, dword ptr [rsi]
 20041a9: 72 65                        	jb	0x2004210 <gfx_present+0x2ab>
 20041ab: 20 65 74                     	and	byte ptr [rbp + 0x74], ah
 20041ae: 20 64 6f 6c                  	and	byte ptr [rdi + 2*rbp + 0x6c], ah
 20041b2: 6f                           	outsd	dx, dword ptr [rsi]
 20041b3: 72 65                        	jb	0x200421a <gfx_present+0x2b5>
 20041b5: 20 6d 61                     	and	byte ptr [rbp + 0x61], ch
 20041b8: 67 6e                        	outsb	dx, byte ptr [esi]
 20041ba: 61                           	<unknown>
 20041bb: 20 61 6c                     	and	byte ptr [rcx + 0x6c], ah
 20041be: 69 71 75 61 2e 20 55         	imul	esi, dword ptr [rcx + 0x75], 0x55202e61
 20041c5: 74 20                        	je	0x20041e7 <gfx_present+0x282>
 20041c7: 65 6e                        	outsb	dx, byte ptr gs:[rsi]
 20041c9: 69 6d 20 61 64 20 6d         	imul	ebp, dword ptr [rbp + 0x20], 0x6d206461
 20041d0: 69 6e 69 6d 20 76 65         	imul	ebp, dword ptr [rsi + 0x69], 0x6576206d
 20041d7: 6e                           	outsb	dx, byte ptr [rsi]
 20041d8: 69 61 6d 2c 20 71 75         	imul	esp, dword ptr [rcx + 0x6d], 0x7571202c
 20041df: 69 73 20 6e 6f 73 74         	imul	esi, dword ptr [rbx + 0x20], 0x74736f6e
 20041e6: 72 75                        	jb	0x200425d <gfx_present+0x2f8>
 20041e8: 64 20 65 78                  	and	byte ptr fs:[rbp + 0x78], ah
 20041ec: 65 72 63                     	jb	0x2004252 <gfx_present+0x2ed>
 20041ef: 69 74 61 74 69 6f 6e 20      	imul	esi, dword ptr [rcx + 2*riz + 0x74], 0x206e6f69
 20041f7: 75 6c                        	jne	0x2004265 <gfx_present+0x300>
 20041f9: 6c                           	insb	byte ptr es:[rdi], dx
 20041fa: 61                           	<unknown>
 20041fb: 6d                           	insd	dword ptr es:[rdi], dx
 20041fc: 63 6f 20                     	movsxd	ebp, dword ptr [rdi + 0x20]
 20041ff: 6c                           	insb	byte ptr es:[rdi], dx
 2004200: 61                           	<unknown>
 2004201: 62 6f 72 69 73               	<unknown>
 2004206: 20 6e 69                     	and	byte ptr [rsi + 0x69], ch
 2004209: 73 69                        	jae	0x2004274 <gfx_present+0x30f>
 200420b: 20 75 74                     	and	byte ptr [rbp + 0x74], dh
 200420e: 20 61 6c                     	and	byte ptr [rcx + 0x6c], ah
 2004211: 69 71 75 69 70 20 65         	imul	esi, dword ptr [rcx + 0x75], 0x65207069
 2004218: 78 20                        	js	0x200423a <gfx_present+0x2d5>
 200421a: 65 61                        	<unknown>
 200421c: 20 63 6f                     	and	byte ptr [rbx + 0x6f], ah
 200421f: 6d                           	insd	dword ptr es:[rdi], dx
 2004220: 6d                           	insd	dword ptr es:[rdi], dx
 2004221: 6f                           	outsd	dx, dword ptr [rsi]
 2004222: 64 6f                        	outsd	dx, dword ptr fs:[rsi]
 2004224: 20 63 6f                     	and	byte ptr [rbx + 0x6f], ah
 2004227: 6e                           	outsb	dx, byte ptr [rsi]
 2004228: 73 65                        	jae	0x200428f <gfx_present+0x32a>
 200422a: 71 75                        	jno	0x20042a1 <gfx_present+0x33c>
 200422c: 61                           	<unknown>
 200422d: 74 2e                        	je	0x200425d <gfx_present+0x2f8>
 200422f: 00 20                        	add	byte ptr [rax], ah
 2004231: 50                           	push	rax
 2004232: 72 65                        	jb	0x2004299 <gfx_present+0x334>
 2004234: 73 73                        	jae	0x20042a9 <gfx_present+0x344>
 2004236: 20 61 6e                     	and	byte ptr [rcx + 0x6e], ah
 2004239: 79 20                        	jns	0x200425b <gfx_present+0x2f6>
 200423b: 6b 65 79 20                  	imul	esp, dword ptr [rbp + 0x79], 0x20
 200423f: 74 6f                        	je	0x20042b0 <gfx_present+0x34b>
 2004241: 20 65 78                     	and	byte ptr [rbp + 0x78], ah
 2004244: 69 74 20 00 18 24 00 02      	imul	esi, dword ptr [rax + riz], 0x2002418
 200424c: 00 00                        	add	byte ptr [rax], al
 200424e: 00 00                        	add	byte ptr [rax], al
 2004250: 64 24 00                     	and	al, 0x0
 2004253: 02 00                        	add	al, byte ptr [rax]
 2004255: 00 00                        	add	byte ptr [rax], al
 2004257: 00 fa                        	add	dl, bh
 2004259: 24 00                        	and	al, 0x0
 200425b: 02 00                        	add	al, byte ptr [rax]
 200425d: 00 00                        	add	byte ptr [rax], al
 200425f: 00 f0                        	add	al, dh
 2004261: 23 00                        	and	eax, dword ptr [rax]
 2004263: 02 00                        	add	al, byte ptr [rax]
 2004265: 00 00                        	add	byte ptr [rax], al
 2004267: 00 f0                        	add	al, dh
 2004269: 23 00                        	and	eax, dword ptr [rax]
 200426b: 02 00                        	add	al, byte ptr [rax]
 200426d: 00 00                        	add	byte ptr [rax], al
 200426f: 00 f0                        	add	al, dh
 2004271: 23 00                        	and	eax, dword ptr [rax]
 2004273: 02 00                        	add	al, byte ptr [rax]
 2004275: 00 00                        	add	byte ptr [rax], al
 2004277: 00 f0                        	add	al, dh
 2004279: 23 00                        	and	eax, dword ptr [rax]
 200427b: 02 00                        	add	al, byte ptr [rax]
 200427d: 00 00                        	add	byte ptr [rax], al
 200427f: 00 f0                        	add	al, dh
 2004281: 23 00                        	and	eax, dword ptr [rax]
 2004283: 02 00                        	add	al, byte ptr [rax]
 2004285: 00 00                        	add	byte ptr [rax], al
 2004287: 00 f0                        	add	al, dh
 2004289: 23 00                        	and	eax, dword ptr [rax]
 200428b: 02 00                        	add	al, byte ptr [rax]
 200428d: 00 00                        	add	byte ptr [rax], al
 200428f: 00 f0                        	add	al, dh
 2004291: 23 00                        	and	eax, dword ptr [rax]
 2004293: 02 00                        	add	al, byte ptr [rax]
 2004295: 00 00                        	add	byte ptr [rax], al
 2004297: 00 e9                        	add	cl, ch
 2004299: 23 00                        	and	eax, dword ptr [rax]
 200429b: 02 00                        	add	al, byte ptr [rax]
 200429d: 00 00                        	add	byte ptr [rax], al
 200429f: 00 f0                        	add	al, dh
 20042a1: 23 00                        	and	eax, dword ptr [rax]
 20042a3: 02 00                        	add	al, byte ptr [rax]
 20042a5: 00 00                        	add	byte ptr [rax], al
 20042a7: 00 f0                        	add	al, dh
 20042a9: 23 00                        	and	eax, dword ptr [rax]
 20042ab: 02 00                        	add	al, byte ptr [rax]
 20042ad: 00 00                        	add	byte ptr [rax], al
 20042af: 00 f0                        	add	al, dh
 20042b1: 23 00                        	and	eax, dword ptr [rax]
 20042b3: 02 00                        	add	al, byte ptr [rax]
 20042b5: 00 00                        	add	byte ptr [rax], al
 20042b7: 00 f0                        	add	al, dh
 20042b9: 23 00                        	and	eax, dword ptr [rax]
 20042bb: 02 00                        	add	al, byte ptr [rax]
 20042bd: 00 00                        	add	byte ptr [rax], al
 20042bf: 00 f0                        	add	al, dh
 20042c1: 23 00                        	and	eax, dword ptr [rax]
 20042c3: 02 00                        	add	al, byte ptr [rax]
 20042c5: 00 00                        	add	byte ptr [rax], al
 20042c7: 00 f0                        	add	al, dh
 20042c9: 23 00                        	and	eax, dword ptr [rax]
 20042cb: 02 00                        	add	al, byte ptr [rax]
 20042cd: 00 00                        	add	byte ptr [rax], al
 20042cf: 00 b1 24 00 02 00            	add	byte ptr [rcx + 0x20024], dh
 20042d5: 00 00                        	add	byte ptr [rax], al
 20042d7: 00 f0                        	add	al, dh
 20042d9: 23 00                        	and	eax, dword ptr [rax]
 20042db: 02 00                        	add	al, byte ptr [rax]
 20042dd: 00 00                        	add	byte ptr [rax], al
 20042df: 00 18                        	add	byte ptr [rax], bl
 20042e1: 24 00                        	and	al, 0x0
 20042e3: 02 00                        	add	al, byte ptr [rax]
 20042e5: 00 00                        	add	byte ptr [rax], al
 20042e7: 00 f0                        	add	al, dh
 20042e9: 23 00                        	and	eax, dword ptr [rax]
 20042eb: 02 00                        	add	al, byte ptr [rax]
 20042ed: 00 00                        	add	byte ptr [rax], al
 20042ef: 00 f0                        	add	al, dh
 20042f1: 23 00                        	and	eax, dword ptr [rax]
 20042f3: 02 00                        	add	al, byte ptr [rax]
 20042f5: 00 00                        	add	byte ptr [rax], al
 20042f7: 00 18                        	add	byte ptr [rax], bl
 20042f9: 24 00                        	and	al, 0x0
 20042fb: 02 00                        	add	al, byte ptr [rax]
 20042fd: 00 00                        	add	byte ptr [rax], al
 20042ff: 00 1a                        	add	byte ptr [rdx], bl
 2004301: 20 31                        	and	byte ptr [rcx], dh
 2004303: 31 35 2c 31 37 33            	xor	dword ptr [rip + 0x3337312c], esi # 0x35377435 <endOfBinary+0x3336d115>
 2004309: 2c 32                        	sub	al, 0x32
 200430b: 33 33                        	xor	esi, dword ptr [rbx]
 200430d: 3b 25 73 1a 20 52            	cmp	esp, dword ptr [rip + 0x52201a73] # 0x54205d86 <endOfBinary+0x521fba66>
 2004313: 3b 09                        	cmp	ecx, dword ptr [rcx]
 2004315: 2d 20 25 73 0a               	sub	eax, 0xa732520
 200431a: 00 55 73                     	add	byte ptr [rbp + 0x73], dl
 200431d: 61                           	<unknown>
 200431e: 67 65 3a 20                  	cmp	ah, byte ptr gs:[eax]
 2004322: 73 74                        	jae	0x2004398 <gfx_present+0x433>
 2004324: 61                           	<unknown>
 2004325: 74 75                        	je	0x200439c <gfx_present+0x437>
 2004327: 73 20                        	jae	0x2004349 <gfx_present+0x3e4>
 2004329: 3c 6f                        	cmp	al, 0x6f
 200432b: 6e                           	outsb	dx, byte ptr [rsi]
 200432c: 2f                           	<unknown>
 200432d: 6f                           	outsd	dx, dword ptr [rsi]
 200432e: 66 66 3e 0a 00               	or	al, byte ptr ds:[rax]
 2004333: 6f                           	outsd	dx, dword ptr [rsi]
 2004334: 66 66 00 6c 73 00            	add	byte ptr [rbx + 2*rsi], ch
 200433a: 1a 20                        	sbb	ah, byte ptr [rax]
 200433c: 31 31                        	xor	dword ptr [rcx], esi
 200433e: 35 2c 31 37 33               	xor	eax, 0x3337312c
 2004343: 2c 32                        	sub	al, 0x32
 2004345: 33 33                        	xor	esi, dword ptr [rbx]
 2004347: 3b 25 73 0a 00 3e            	cmp	esp, dword ptr [rip + 0x3e000a73] # 0x40004dc0 <endOfBinary+0x3dffaaa0>
 200434d: 20 00                        	and	byte ptr [rax], al
 200434f: 47 6f                        	outsd	dx, dword ptr [rsi]
 2004351: 6f                           	outsd	dx, dword ptr [rsi]
 2004352: 64 62 79 65 21 0a            	<unknown>
 2004358: 00 5b 1a                     	add	byte ptr [rbx + 0x1a], bl
 200435b: 20 32                        	and	byte ptr [rdx], dh
 200435d: 34 30                        	xor	al, 0x30
 200435f: 2c 31                        	sub	al, 0x31
 2004361: 31 36                        	xor	dword ptr [rsi], esi
 2004363: 2c 31                        	sub	al, 0x31
 2004365: 30 30                        	xor	byte ptr [rax], dh
 2004367: 3b 25 75 1a 20 52            	cmp	esp, dword ptr [rip + 0x52201a75] # 0x54205de2 <endOfBinary+0x521fbac2>
 200436d: 3b 5d 20                     	cmp	ebx, dword ptr [rbp + 0x20]
 2004370: 00 68 65                     	add	byte ptr [rax + 0x65], ch
 2004373: 6c                           	insb	byte ptr es:[rdi], dx
 2004374: 70 00                        	jo	0x2004376 <gfx_present+0x411>
 2004376: 44 69 73 70 6c 61 79 20      	imul	r14d, dword ptr [rbx + 0x70], 0x2079616c
 200437e: 74 68                        	je	0x20043e8 <gfx_present+0x483>
 2004380: 69 73 20 68 65 6c 70         	imul	esi, dword ptr [rbx + 0x20], 0x706c6568
 2004387: 20 6d 65                     	and	byte ptr [rbp + 0x65], ch
 200438a: 73 73                        	jae	0x20043ff <gfx_present+0x49a>
 200438c: 61                           	<unknown>
 200438d: 67 65 00 65 63               	add	byte ptr gs:[ebp + 0x63], ah
 2004392: 68 6f 00 50 72               	push	0x7250006f
 2004397: 69 6e 74 20 61 72 67         	imul	ebp, dword ptr [rsi + 0x74], 0x67726120
 200439e: 75 6d                        	jne	0x200440d <gfx_present+0x4a8>
 20043a0: 65 6e                        	outsb	dx, byte ptr gs:[rsi]
 20043a2: 74 73                        	je	0x2004417 <gfx_present+0x4b2>
 20043a4: 20 74 6f 20                  	and	byte ptr [rdi + 2*rbp + 0x20], dh
 20043a8: 73 74                        	jae	0x200441e <gfx_present+0x4b9>
 20043aa: 64 6f                        	outsd	dx, dword ptr fs:[rsi]
 20043ac: 75 74                        	jne	0x2004422 <gfx_present+0x4bd>
 20043ae: 00 65 78                     	add	byte ptr [rbp + 0x78], ah
 20043b1: 69 74 00 63 6c 65 61 72      	imul	esi, dword ptr [rax + rax + 0x63], 0x7261656c
 20043b9: 00 43 6c                     	add	byte ptr [rbx + 0x6c], al
 20043bc: 65 61                        	<unknown>
 20043be: 72 20                        	jb	0x20043e0 <gfx_present+0x47b>
 20043c0: 73 74                        	jae	0x2004436 <gfx_present+0x4d1>
 20043c2: 64 6f                        	outsd	dx, dword ptr fs:[rsi]
 20043c4: 75 74                        	jne	0x200443a <gfx_present+0x4d5>
 20043c6: 00 73 65                     	add	byte ptr [rbx + 0x65], dh
 20043c9: 74 66                        	je	0x2004431 <gfx_present+0x4cc>
 20043cb: 6f                           	outsd	dx, dword ptr [rsi]
 20043cc: 6e                           	outsb	dx, byte ptr [rsi]
 20043cd: 74 00                        	je	0x20043cf <gfx_present+0x46a>
 20043cf: 53                           	push	rbx
 20043d0: 65 74 20                     	je	0x20043f3 <gfx_present+0x48e>
 20043d3: 74 65                        	je	0x200443a <gfx_present+0x4d5>
 20043d5: 78 74                        	js	0x200444b <gfx_present+0x4e6>
 20043d7: 20 6d 6f                     	and	byte ptr [rbp + 0x6f], ch
 20043da: 64 65 20 66 6f               	and	byte ptr gs:[rsi + 0x6f], ah
 20043df: 6e                           	outsb	dx, byte ptr [rsi]
 20043e0: 74 00                        	je	0x20043e2 <gfx_present+0x47d>
 20043e2: 67 66 78 64                  	addr32		js	0x200444a <gfx_present+0x4e5>
 20043e6: 65 6d                        	insd	dword ptr es:[rdi], dx
 20043e8: 6f                           	outsd	dx, dword ptr [rsi]
 20043e9: 00 47 72                     	add	byte ptr [rdi + 0x72], al
 20043ec: 61                           	<unknown>
 20043ed: 70 68                        	jo	0x2004457 <gfx_present+0x4f2>
 20043ef: 69 63 73 20 6d 6f 64         	imul	esp, dword ptr [rbx + 0x73], 0x646f6d20
 20043f6: 65 20 64 65 6d               	and	byte ptr gs:[rbp + 2*riz + 0x6d], ah
 20043fb: 6f                           	outsd	dx, dword ptr [rsi]
 20043fc: 00 64 65 6d                  	add	byte ptr [rbp + 2*riz + 0x6d], ah
 2004400: 6f                           	outsd	dx, dword ptr [rsi]
 2004401: 33 64 00 33                  	xor	esp, dword ptr [rax + rax + 0x33]
 2004405: 64 20 47 72                  	and	byte ptr fs:[rdi + 0x72], al
 2004409: 61                           	<unknown>
 200440a: 70 68                        	jo	0x2004474 <gfx_present+0x50f>
 200440c: 69 63 73 20 64 65 6d         	imul	esp, dword ptr [rbx + 0x73], 0x6d656420
 2004413: 6f                           	outsd	dx, dword ptr [rsi]
 2004414: 00 50 72                     	add	byte ptr [rax + 0x72], dl
 2004417: 69 6e 74 20 63 6f 6d         	imul	ebp, dword ptr [rsi + 0x74], 0x6d6f6320
 200441e: 6d                           	insd	dword ptr es:[rdi], dx
 200441f: 61                           	<unknown>
 2004420: 6e                           	outsb	dx, byte ptr [rsi]
 2004421: 64 20 68 69                  	and	byte ptr fs:[rax + 0x69], ch
 2004425: 73 74                        	jae	0x200449b <gfx_present+0x536>
 2004427: 6f                           	outsd	dx, dword ptr [rsi]
 2004428: 72 79                        	jb	0x20044a3 <gfx_present+0x53e>
 200442a: 00 73 74                     	add	byte ptr [rbx + 0x74], dh
 200442d: 61                           	<unknown>
 200442e: 74 75                        	je	0x20044a5 <gfx_present+0x540>
 2004430: 73 00                        	jae	0x2004432 <gfx_present+0x4cd>
 2004432: 65 78 63                     	js	0x2004498 <gfx_present+0x533>
 2004435: 30 30                        	xor	byte ptr [rax], dh
 2004437: 00 65 78                     	add	byte ptr [rbp + 0x78], ah
 200443a: 63 30                        	movsxd	esi, dword ptr [rax]
 200443c: 36 00 54 65 73               	add	byte ptr ss:[rbp + 2*riz + 0x73], dl
 2004441: 74 20                        	je	0x2004463 <gfx_present+0x4fe>
 2004443: 4f 70 43                     	jo	0x2004489 <gfx_present+0x524>
 2004446: 6f                           	outsd	dx, dword ptr [rsi]
 2004447: 64 65 20 45 78               	and	byte ptr gs:[rbp + 0x78], al
 200444c: 63 65 70                     	movsxd	esp, dword ptr [rbp + 0x70]
 200444f: 74 69                        	je	0x20044ba <gfx_present+0x555>
 2004451: 6f                           	outsd	dx, dword ptr [rsi]
 2004452: 6e                           	outsb	dx, byte ptr [rsi]
 2004453: 00 64 65 66                  	add	byte ptr [rbp + 2*riz + 0x66], ah
 2004457: 61                           	<unknown>
 2004458: 75 6c                        	jne	0x20044c6 <gfx_present+0x561>
 200445a: 74 00                        	je	0x200445c <gfx_present+0x4f7>
 200445c: 74 69                        	je	0x20044c7 <gfx_present+0x562>
 200445e: 6e                           	outsb	dx, byte ptr [rsi]
 200445f: 79 00                        	jns	0x2004461 <gfx_present+0x4fc>
 2004461: 74 69                        	je	0x20044cc <gfx_present+0x567>
 2004463: 6e                           	outsb	dx, byte ptr [rsi]
 2004464: 79 20                        	jns	0x2004486 <gfx_present+0x521>
 2004466: 62 6f 6c 64 00               	<unknown>
 200446b: 73 6d                        	jae	0x20044da <gfx_present+0x575>
 200446d: 61                           	<unknown>
 200446e: 6c                           	insb	byte ptr es:[rdi], dx
 200446f: 6c                           	insb	byte ptr es:[rdi], dx
 2004470: 00 6c 61 72                  	add	byte ptr [rcx + 2*riz + 0x72], ch
 2004474: 67 65 00 61 6c               	add	byte ptr gs:[ecx + 0x6c], ah
 2004479: 74 00                        	je	0x200447b <gfx_present+0x516>
 200447b: 61                           	<unknown>
 200447c: 6c                           	insb	byte ptr es:[rdi], dx
 200447d: 74 20                        	je	0x200449f <gfx_present+0x53a>
 200447f: 62 6f 6c 64 00               	<unknown>
 2004484: 66 75 74                     	jne	0x20044fb <gfx_present+0x596>
 2004487: 75 72                        	jne	0x20044fb <gfx_present+0x596>
 2004489: 65 00 0f                     	add	byte ptr gs:[rdi], cl
 200448c: 1f                           	<unknown>
 200448d: 44 00 00                     	add	byte ptr [rax], r8b
 2004490: 57                           	push	rdi
 2004491: 65 6c                        	insb	byte ptr es:[rdi], dx
 2004493: 63 6f 6d                     	movsxd	ebp, dword ptr [rdi + 0x6d]
 2004496: 65 20 74 6f 20               	and	byte ptr gs:[rdi + 2*rbp + 0x20], dh
 200449b: 1a 20                        	sbb	ah, byte ptr [rax]
 200449d: 31 39                        	xor	dword ptr [rcx], edi
 200449f: 35 2c 32 34 38               	xor	eax, 0x3834322c
 20044a4: 2c 31                        	sub	al, 0x31
 20044a6: 33 32                        	xor	esi, dword ptr [rdx]
 20044a8: 3b 74 70 65                  	cmp	esi, dword ptr [rax + 2*rsi + 0x65]
 20044ac: 4f 53                        	push	r11
 20044ae: 1a 20                        	sbb	ah, byte ptr [rax]
 20044b0: 52                           	push	rdx
 20044b1: 3b 21                        	cmp	esp, dword ptr [rcx]
 20044b3: 0a 41 76                     	or	al, byte ptr [rcx + 0x76]
 20044b6: 61                           	<unknown>
 20044b7: 69 6c 61 62 6c 65 20 63      	imul	ebp, dword ptr [rcx + 2*riz + 0x62], 0x6320656c
 20044bf: 6f                           	outsd	dx, dword ptr [rsi]
 20044c0: 6d                           	insd	dword ptr es:[rdi], dx
 20044c1: 6d                           	insd	dword ptr es:[rdi], dx
 20044c2: 61                           	<unknown>
 20044c3: 6e                           	outsb	dx, byte ptr [rsi]
 20044c4: 64 73 3a                     	jae	0x2004501 <gfx_present+0x59c>
 20044c7: 0a 0a                        	or	cl, byte ptr [rdx]
 20044c9: 00 00                        	add	byte ptr [rax], al
 20044cb: 00 00                        	add	byte ptr [rax], al
 20044cd: 00 00                        	add	byte ptr [rax], al
 20044cf: 00 0a                        	add	byte ptr [rdx], cl
 20044d1: 50                           	push	rax
 20044d2: 72 65                        	jb	0x2004539 <gfx_present+0x5d4>
 20044d4: 73 73                        	jae	0x2004549 <gfx_present+0x5e4>
 20044d6: 20 74 68 65                  	and	byte ptr [rax + 2*rbp + 0x65], dh
 20044da: 20 1a                        	and	byte ptr [rdx], bl
 20044dc: 20 32                        	and	byte ptr [rdx], dh
 20044de: 35 35 2c 31 39               	xor	eax, 0x39312c35
 20044e3: 37                           	<unknown>
 20044e4: 2c 39                        	sub	al, 0x39
 20044e6: 36 3b 46 31                  	cmp	eax, dword ptr ss:[rsi + 0x31]
 20044ea: 1a 20                        	sbb	ah, byte ptr [rax]
 20044ec: 52                           	push	rdx
 20044ed: 3b 20                        	cmp	esp, dword ptr [rax]
 20044ef: 6b 65 79 20                  	imul	esp, dword ptr [rbp + 0x79], 0x20
 20044f3: 61                           	<unknown>
 20044f4: 6e                           	outsb	dx, byte ptr [rsi]
 20044f5: 79 20                        	jns	0x2004517 <gfx_present+0x5b2>
 20044f7: 74 69                        	je	0x2004562 <gfx_present+0x5fd>
 20044f9: 6d                           	insd	dword ptr es:[rdi], dx
 20044fa: 65 20 74 6f 20               	and	byte ptr gs:[rdi + 2*rbp + 0x20], dh
 20044ff: 64 75 6d                     	jne	0x200456f <gfx_present+0x60a>
 2004502: 70 20                        	jo	0x2004524 <gfx_present+0x5bf>
 2004504: 43 50                        	push	r8
 2004506: 55                           	push	rbp
 2004507: 20 73 74                     	and	byte ptr [rbx + 0x74], dh
 200450a: 61                           	<unknown>
 200450b: 74 65                        	je	0x2004572 <gfx_present+0x60d>
 200450d: 0a 00                        	or	al, byte ptr [rax]
 200450f: 00 1a                        	add	byte ptr [rdx], bl
 2004511: 20 32                        	and	byte ptr [rdx], dh
 2004513: 34 30                        	xor	al, 0x30
 2004515: 2c 31                        	sub	al, 0x31
 2004517: 31 36                        	xor	dword ptr [rsi], esi
 2004519: 2c 31                        	sub	al, 0x31
 200451b: 30 30                        	xor	byte ptr [rax], dh
 200451d: 3b 49 6e                     	cmp	ecx, dword ptr [rcx + 0x6e]
 2004520: 76 61                        	jbe	0x2004583 <gfx_present+0x61e>
 2004522: 6c                           	insb	byte ptr es:[rdi], dx
 2004523: 69 64 20 61 72 67 75 6d      	imul	esp, dword ptr [rax + riz + 0x61], 0x6d756772
 200452b: 65 6e                        	outsb	dx, byte ptr gs:[rsi]
 200452d: 74 20                        	je	0x200454f <gfx_present+0x5ea>
 200452f: 27                           	<unknown>
 2004530: 25 73 27 0a 1a               	and	eax, 0x1a0a2773
 2004535: 20 52 3b                     	and	byte ptr [rdx + 0x3b], dl
 2004538: 55                           	push	rbp
 2004539: 73 61                        	jae	0x200459c <gfx_present+0x637>
 200453b: 67 65 3a 20                  	cmp	ah, byte ptr gs:[eax]
 200453f: 73 74                        	jae	0x20045b5 <gfx_present+0x650>
 2004541: 61                           	<unknown>
 2004542: 74 75                        	je	0x20045b9 <gfx_present+0x654>
 2004544: 73 20                        	jae	0x2004566 <gfx_present+0x601>
 2004546: 3c 6f                        	cmp	al, 0x6f
 2004548: 6e                           	outsb	dx, byte ptr [rsi]
 2004549: 2f                           	<unknown>
 200454a: 6f                           	outsd	dx, dword ptr [rsi]
 200454b: 66 66 3e 0a 00               	or	al, byte ptr ds:[rax]
 2004550: 1a 20                        	sbb	ah, byte ptr [rax]
 2004552: 32 34 30                     	xor	dh, byte ptr [rax + rsi]
 2004555: 2c 31                        	sub	al, 0x31
 2004557: 31 36                        	xor	dword ptr [rsi], esi
 2004559: 2c 31                        	sub	al, 0x31
 200455b: 30 30                        	xor	byte ptr [rax], dh
 200455d: 3b 4d 69                     	cmp	ecx, dword ptr [rbp + 0x69]
 2004560: 73 73                        	jae	0x20045d5 <gfx_present+0x670>
 2004562: 69 6e 67 20 66 6f 6e         	imul	ebp, dword ptr [rsi + 0x67], 0x6e6f6620
 2004569: 74 20                        	je	0x200458b <gfx_present+0x626>
 200456b: 6e                           	outsb	dx, byte ptr [rsi]
 200456c: 61                           	<unknown>
 200456d: 6d                           	insd	dword ptr es:[rdi], dx
 200456e: 65 0a 1a                     	or	bl, byte ptr gs:[rdx]
 2004571: 20 52 3b                     	and	byte ptr [rdx + 0x3b], dl
 2004574: 55                           	push	rbp
 2004575: 73 61                        	jae	0x20045d8 <gfx_present+0x673>
 2004577: 67 65 3a 20                  	cmp	ah, byte ptr gs:[eax]
 200457b: 73 65                        	jae	0x20045e2 <gfx_present+0x67d>
 200457d: 74 66                        	je	0x20045e5 <gfx_present+0x680>
 200457f: 6f                           	outsd	dx, dword ptr [rsi]
 2004580: 6e                           	outsb	dx, byte ptr [rsi]
 2004581: 74 20                        	je	0x20045a3 <gfx_present+0x63e>
 2004583: 3c 66                        	cmp	al, 0x66
 2004585: 6f                           	outsd	dx, dword ptr [rsi]
 2004586: 6e                           	outsb	dx, byte ptr [rsi]
 2004587: 74 20                        	je	0x20045a9 <gfx_present+0x644>
 2004589: 6e                           	outsb	dx, byte ptr [rsi]
 200458a: 61                           	<unknown>
 200458b: 6d                           	insd	dword ptr es:[rdi], dx
 200458c: 65 3e 0a 48 69               	or	cl, byte ptr ds:[rax + 0x69]
 2004591: 6e                           	outsb	dx, byte ptr [rsi]
 2004592: 74 3a                        	je	0x20045ce <gfx_present+0x669>
 2004594: 20 54 79 70                  	and	byte ptr [rcx + 2*rdi + 0x70], dl
 2004598: 65 20 1a                     	and	byte ptr gs:[rdx], bl
 200459b: 20 32                        	and	byte ptr [rdx], dh
 200459d: 35 35 2c 31 39               	xor	eax, 0x39312c35
 20045a2: 37                           	<unknown>
 20045a3: 2c 39                        	sub	al, 0x39
 20045a5: 36 3b 27                     	cmp	esp, dword ptr ss:[rdi]
 20045a8: 73 65                        	jae	0x200460f <gfx_present+0x6aa>
 20045aa: 74 66                        	je	0x2004612 <gfx_present+0x6ad>
 20045ac: 6f                           	outsd	dx, dword ptr [rsi]
 20045ad: 6e                           	outsb	dx, byte ptr [rsi]
 20045ae: 74 20                        	je	0x20045d0 <gfx_present+0x66b>
 20045b0: 6c                           	insb	byte ptr es:[rdi], dx
 20045b1: 73 27                        	jae	0x20045da <gfx_present+0x675>
 20045b3: 1a 20                        	sbb	ah, byte ptr [rax]
 20045b5: 52                           	push	rdx
 20045b6: 3b 20                        	cmp	esp, dword ptr [rax]
 20045b8: 66 6f                        	outsw	dx, word ptr [rsi]
 20045ba: 72 20                        	jb	0x20045dc <gfx_present+0x677>
 20045bc: 61                           	<unknown>
 20045bd: 20 6c 69 73                  	and	byte ptr [rcx + 2*rbp + 0x73], ch
 20045c1: 74 20                        	je	0x20045e3 <gfx_present+0x67e>
 20045c3: 6f                           	outsd	dx, dword ptr [rsi]
 20045c4: 66 20 66 6f                  	and	byte ptr [rsi + 0x6f], ah
 20045c8: 6e                           	outsb	dx, byte ptr [rsi]
 20045c9: 74 73                        	je	0x200463e <gfx_present+0x6d9>
 20045cb: 0a 00                        	or	al, byte ptr [rax]
 20045cd: 00 00                        	add	byte ptr [rax], al
 20045cf: 00 1a                        	add	byte ptr [rdx], bl
 20045d1: 20 32                        	and	byte ptr [rdx], dh
 20045d3: 34 30                        	xor	al, 0x30
 20045d5: 2c 31                        	sub	al, 0x31
 20045d7: 31 36                        	xor	dword ptr [rsi], esi
 20045d9: 2c 31                        	sub	al, 0x31
 20045db: 30 30                        	xor	byte ptr [rax], dh
 20045dd: 3b 55 6e                     	cmp	edx, dword ptr [rbp + 0x6e]
 20045e0: 6b 6e 6f 77                  	imul	ebp, dword ptr [rsi + 0x6f], 0x77
 20045e4: 6e                           	outsb	dx, byte ptr [rsi]
 20045e5: 20 66 6f                     	and	byte ptr [rsi + 0x6f], ah
 20045e8: 6e                           	outsb	dx, byte ptr [rsi]
 20045e9: 74 20                        	je	0x200460b <gfx_present+0x6a6>
 20045eb: 6e                           	outsb	dx, byte ptr [rsi]
 20045ec: 61                           	<unknown>
 20045ed: 6d                           	insd	dword ptr es:[rdi], dx
 20045ee: 65 20 27                     	and	byte ptr gs:[rdi], ah
 20045f1: 25 73 27 0a 1a               	and	eax, 0x1a0a2773
 20045f6: 20 52 3b                     	and	byte ptr [rdx + 0x3b], dl
 20045f9: 48 69 6e 74 3a 20 54 79      	imul	rbp, qword ptr [rsi + 0x74], 0x7954203a
 2004601: 70 65                        	jo	0x2004668 <gfx_present+0x703>
 2004603: 20 1a                        	and	byte ptr [rdx], bl
 2004605: 20 32                        	and	byte ptr [rdx], dh
 2004607: 35 35 2c 31 39               	xor	eax, 0x39312c35
 200460c: 37                           	<unknown>
 200460d: 2c 39                        	sub	al, 0x39
 200460f: 36 3b 27                     	cmp	esp, dword ptr ss:[rdi]
 2004612: 73 65                        	jae	0x2004679 <gfx_present+0x714>
 2004614: 74 66                        	je	0x200467c <gfx_present+0x717>
 2004616: 6f                           	outsd	dx, dword ptr [rsi]
 2004617: 6e                           	outsb	dx, byte ptr [rsi]
 2004618: 74 20                        	je	0x200463a <gfx_present+0x6d5>
 200461a: 6c                           	insb	byte ptr es:[rdi], dx
 200461b: 73 27                        	jae	0x2004644 <gfx_present+0x6df>
 200461d: 1a 20                        	sbb	ah, byte ptr [rax]
 200461f: 52                           	push	rdx
 2004620: 3b 20                        	cmp	esp, dword ptr [rax]
 2004622: 66 6f                        	outsw	dx, word ptr [rsi]
 2004624: 72 20                        	jb	0x2004646 <gfx_present+0x6e1>
 2004626: 61                           	<unknown>
 2004627: 20 6c 69 73                  	and	byte ptr [rcx + 2*rbp + 0x73], ch
 200462b: 74 20                        	je	0x200464d <gfx_present+0x6e8>
 200462d: 6f                           	outsd	dx, dword ptr [rsi]
 200462e: 66 20 66 6f                  	and	byte ptr [rsi + 0x6f], ah
 2004632: 6e                           	outsb	dx, byte ptr [rsi]
 2004633: 74 73                        	je	0x20046a8 <gfx_present+0x743>
 2004635: 0a 00                        	or	al, byte ptr [rax]
 2004637: 00 1a                        	add	byte ptr [rdx], bl
 2004639: 20 32                        	and	byte ptr [rdx], dh
 200463b: 34 30                        	xor	al, 0x30
 200463d: 2c 31                        	sub	al, 0x31
 200463f: 31 36                        	xor	dword ptr [rsi], esi
 2004641: 2c 31                        	sub	al, 0x31
 2004643: 30 30                        	xor	byte ptr [rax], dh
 2004645: 3b 55 6e                     	cmp	edx, dword ptr [rbp + 0x6e]
 2004648: 6b 6e 6f 77                  	imul	ebp, dword ptr [rsi + 0x6f], 0x77
 200464c: 6e                           	outsb	dx, byte ptr [rsi]
 200464d: 20 63 6f                     	and	byte ptr [rbx + 0x6f], ah
 2004650: 6d                           	insd	dword ptr es:[rdi], dx
 2004651: 6d                           	insd	dword ptr es:[rdi], dx
 2004652: 61                           	<unknown>
 2004653: 6e                           	outsb	dx, byte ptr [rsi]
 2004654: 64 20 27                     	and	byte ptr fs:[rdi], ah
 2004657: 25 73 27 0a 1a               	and	eax, 0x1a0a2773
 200465c: 20 52 3b                     	and	byte ptr [rdx + 0x3b], dl
 200465f: 48 69 6e 74 3a 20 54 79      	imul	rbp, qword ptr [rsi + 0x74], 0x7954203a
 2004667: 70 65                        	jo	0x20046ce <gfx_present+0x769>
 2004669: 20 1a                        	and	byte ptr [rdx], bl
 200466b: 20 32                        	and	byte ptr [rdx], dh
 200466d: 35 35 2c 31 39               	xor	eax, 0x39312c35
 2004672: 37                           	<unknown>
 2004673: 2c 39                        	sub	al, 0x39
 2004675: 36 3b 27                     	cmp	esp, dword ptr ss:[rdi]
 2004678: 68 65 6c 70 27               	push	0x27706c65
 200467d: 1a 20                        	sbb	ah, byte ptr [rax]
 200467f: 52                           	push	rdx
 2004680: 3b 20                        	cmp	esp, dword ptr [rax]
 2004682: 66 6f                        	outsw	dx, word ptr [rsi]
 2004684: 72 20                        	jb	0x20046a6 <gfx_present+0x741>
 2004686: 61                           	<unknown>
 2004687: 20 6c 69 73                  	and	byte ptr [rcx + 2*rbp + 0x73], ch
 200468b: 74 20                        	je	0x20046ad <gfx_present+0x748>
 200468d: 6f                           	outsd	dx, dword ptr [rsi]
 200468e: 66 20 61 76                  	and	byte ptr [rcx + 0x76], ah
 2004692: 61                           	<unknown>
 2004693: 69 6c 61 62 6c 65 20 63      	imul	ebp, dword ptr [rcx + 2*riz + 0x62], 0x6320656c
 200469b: 6f                           	outsd	dx, dword ptr [rsi]
 200469c: 6d                           	insd	dword ptr es:[rdi], dx
 200469d: 6d                           	insd	dword ptr es:[rdi], dx
 200469e: 61                           	<unknown>
 200469f: 6e                           	outsb	dx, byte ptr [rsi]
 20046a0: 64 73 0a                     	jae	0x20046ad <gfx_present+0x748>
 20046a3: 00 00                        	add	byte ptr [rax], al
 20046a5: 00 00                        	add	byte ptr [rax], al
 20046a7: 00 45 78                     	add	byte ptr [rbp + 0x78], al
 20046aa: 69 74 20 74 68 65 20 73      	imul	esi, dword ptr [rax + riz + 0x74], 0x73206568
 20046b2: 68 65 6c 6c 20               	push	0x206c6c65
 20046b7: 61                           	<unknown>
 20046b8: 6e                           	outsb	dx, byte ptr [rsi]
 20046b9: 64 20 72 65                  	and	byte ptr fs:[rdx + 0x65], dh
 20046bd: 74 75                        	je	0x2004734
 20046bf: 72 6e                        	jb	0x200472f <gfx_present+0x7ca>
 20046c1: 20 74 6f 20                  	and	byte ptr [rdi + 2*rbp + 0x20], dh
 20046c5: 6b 65 72 6e                  	imul	esp, dword ptr [rbp + 0x72], 0x6e
 20046c9: 65 6c                        	insb	byte ptr es:[rdi], dx
 20046cb: 00 00                        	add	byte ptr [rax], al
 20046cd: 00 00                        	add	byte ptr [rax], al
 20046cf: 00 54 75 72                  	add	byte ptr [rbp + 2*rsi + 0x72], dl
 20046d3: 6e                           	outsb	dx, byte ptr [rsi]
 20046d4: 20 74 68 65                  	and	byte ptr [rax + 2*rbp + 0x65], dh
 20046d8: 20 73 79                     	and	byte ptr [rbx + 0x79], dh
 20046db: 73 74                        	jae	0x2004751
 20046dd: 65 6d                        	insd	dword ptr es:[rdi], dx
 20046df: 20 73 74                     	and	byte ptr [rbx + 0x74], dh
 20046e2: 61                           	<unknown>
 20046e3: 74 75                        	je	0x200475a
 20046e5: 73 20                        	jae	0x2004707 <gfx_present+0x7a2>
 20046e7: 62 61 72 20 6f 6e 20         	<unknown>
 20046ee: 6f                           	outsd	dx, dword ptr [rsi]
 20046ef: 72 20                        	jb	0x2004711 <gfx_present+0x7ac>
 20046f1: 6f                           	outsd	dx, dword ptr [rsi]
 20046f2: 66 66 00 00                  	add	byte ptr [rax], al
 20046f6: 00 00                        	add	byte ptr [rax], al
 20046f8: 54                           	push	rsp
 20046f9: 65 73 74                     	jae	0x2004770
 20046fc: 73 20                        	jae	0x200471e <gfx_present+0x7b9>
 20046fe: 44 69 76 69 73 69 6f 6e      	imul	r14d, dword ptr [rsi + 0x69], 0x6e6f6973
 2004706: 20 62 79                     	and	byte ptr [rdx + 0x79], ah
 2004709: 20 5a 65                     	and	byte ptr [rdx + 0x65], bl
 200470c: 72 6f                        	jb	0x200477d
 200470e: 20 45 78                     	and	byte ptr [rbp + 0x78], al
 2004711: 63 65 70                     	movsxd	esp, dword ptr [rbp + 0x70]
 2004714: 74 69                        	je	0x200477f
 2004716: 6f                           	outsd	dx, dword ptr [rsi]
 2004717: 6e                           	outsb	dx, byte ptr [rsi]
 2004718: 00 57 65                     	add	byte ptr [rdi + 0x65], dl
 200471b: 6c                           	insb	byte ptr es:[rdi], dx
 200471c: 63 6f 6d                     	movsxd	ebp, dword ptr [rdi + 0x6d]
 200471f: 65 20 74 6f 20               	and	byte ptr gs:[rdi + 2*rbp + 0x20], dh
 2004724: 75 73                        	jne	0x2004799
 2004726: 65 72 6c                     	jb	0x2004795
 2004729: 61                           	<unknown>
 200472a: 6e                           	outsb	dx, byte ptr [rsi]
 200472b: 64 0a 00                     	or	al, byte ptr fs:[rax]
